
monitor:     file format elf32-i386

Disassembly of section .init:

08071408 <_init>:
 8071408:	55                   	push   %ebp
 8071409:	89 e5                	mov    %esp,%ebp
 807140b:	83 ec 08             	sub    $0x8,%esp
 807140e:	e8 d1 08 00 00       	call   8071ce4 <call_gmon_start>
 8071413:	e8 c8 09 00 00       	call   8071de0 <frame_dummy>
 8071418:	e8 e3 4a 02 00       	call   8095f00 <__do_global_ctors_aux>
 807141d:	c9                   	leave  
 807141e:	c3                   	ret    
Disassembly of section .plt:

08071420 <pcap_loop@plt-0x10>:
 8071420:	ff 35 74 21 0b 08    	pushl  0x80b2174
 8071426:	ff 25 78 21 0b 08    	jmp    *0x80b2178
 807142c:	00 00                	add    %al,(%eax)
	...

08071430 <pcap_loop@plt>:
 8071430:	ff 25 7c 21 0b 08    	jmp    *0x80b217c
 8071436:	68 00 00 00 00       	push   $0x0
 807143b:	e9 e0 ff ff ff       	jmp    8071420 <_init+0x18>

08071440 <pthread_getspecific@plt>:
 8071440:	ff 25 80 21 0b 08    	jmp    *0x80b2180
 8071446:	68 08 00 00 00       	push   $0x8
 807144b:	e9 d0 ff ff ff       	jmp    8071420 <_init+0x18>

08071450 <_Znwj@plt>:
 8071450:	ff 25 84 21 0b 08    	jmp    *0x80b2184
 8071456:	68 10 00 00 00       	push   $0x10
 807145b:	e9 c0 ff ff ff       	jmp    8071420 <_init+0x18>

08071460 <strcat@plt>:
 8071460:	ff 25 88 21 0b 08    	jmp    *0x80b2188
 8071466:	68 18 00 00 00       	push   $0x18
 807146b:	e9 b0 ff ff ff       	jmp    8071420 <_init+0x18>

08071470 <lua_tolstring@plt>:
 8071470:	ff 25 8c 21 0b 08    	jmp    *0x80b218c
 8071476:	68 20 00 00 00       	push   $0x20
 807147b:	e9 a0 ff ff ff       	jmp    8071420 <_init+0x18>

08071480 <xmlXPathNewContext@plt>:
 8071480:	ff 25 90 21 0b 08    	jmp    *0x80b2190
 8071486:	68 28 00 00 00       	push   $0x28
 807148b:	e9 90 ff ff ff       	jmp    8071420 <_init+0x18>

08071490 <_ZSt29_Rb_tree_insert_and_rebalancebPSt18_Rb_tree_node_baseS0_RS_@plt>:
 8071490:	ff 25 94 21 0b 08    	jmp    *0x80b2194
 8071496:	68 30 00 00 00       	push   $0x30
 807149b:	e9 80 ff ff ff       	jmp    8071420 <_init+0x18>

080714a0 <lua_getfield@plt>:
 80714a0:	ff 25 98 21 0b 08    	jmp    *0x80b2198
 80714a6:	68 38 00 00 00       	push   $0x38
 80714ab:	e9 70 ff ff ff       	jmp    8071420 <_init+0x18>

080714b0 <pcap_findalldevs@plt>:
 80714b0:	ff 25 9c 21 0b 08    	jmp    *0x80b219c
 80714b6:	68 40 00 00 00       	push   $0x40
 80714bb:	e9 60 ff ff ff       	jmp    8071420 <_init+0x18>

080714c0 <lua_tonumber@plt>:
 80714c0:	ff 25 a0 21 0b 08    	jmp    *0x80b21a0
 80714c6:	68 48 00 00 00       	push   $0x48
 80714cb:	e9 50 ff ff ff       	jmp    8071420 <_init+0x18>

080714d0 <_ZNKSs7compareEPKc@plt>:
 80714d0:	ff 25 a4 21 0b 08    	jmp    *0x80b21a4
 80714d6:	68 50 00 00 00       	push   $0x50
 80714db:	e9 40 ff ff ff       	jmp    8071420 <_init+0x18>

080714e0 <_ZNSolsEm@plt>:
 80714e0:	ff 25 a8 21 0b 08    	jmp    *0x80b21a8
 80714e6:	68 58 00 00 00       	push   $0x58
 80714eb:	e9 30 ff ff ff       	jmp    8071420 <_init+0x18>

080714f0 <ntohs@plt>:
 80714f0:	ff 25 ac 21 0b 08    	jmp    *0x80b21ac
 80714f6:	68 60 00 00 00       	push   $0x60
 80714fb:	e9 20 ff ff ff       	jmp    8071420 <_init+0x18>

08071500 <zmq_strerror@plt>:
 8071500:	ff 25 b0 21 0b 08    	jmp    *0x80b21b0
 8071506:	68 68 00 00 00       	push   $0x68
 807150b:	e9 10 ff ff ff       	jmp    8071420 <_init+0x18>

08071510 <lua_pcall@plt>:
 8071510:	ff 25 b4 21 0b 08    	jmp    *0x80b21b4
 8071516:	68 70 00 00 00       	push   $0x70
 807151b:	e9 00 ff ff ff       	jmp    8071420 <_init+0x18>

08071520 <pthread_key_create@plt>:
 8071520:	ff 25 b8 21 0b 08    	jmp    *0x80b21b8
 8071526:	68 78 00 00 00       	push   $0x78
 807152b:	e9 f0 fe ff ff       	jmp    8071420 <_init+0x18>

08071530 <_ZNKSs6substrEjj@plt>:
 8071530:	ff 25 bc 21 0b 08    	jmp    *0x80b21bc
 8071536:	68 80 00 00 00       	push   $0x80
 807153b:	e9 e0 fe ff ff       	jmp    8071420 <_init+0x18>

08071540 <zmq_msg_init_size@plt>:
 8071540:	ff 25 c0 21 0b 08    	jmp    *0x80b21c0
 8071546:	68 88 00 00 00       	push   $0x88
 807154b:	e9 d0 fe ff ff       	jmp    8071420 <_init+0x18>

08071550 <_ZN7log4cpp8Category7getRootEv@plt>:
 8071550:	ff 25 c4 21 0b 08    	jmp    *0x80b21c4
 8071556:	68 90 00 00 00       	push   $0x90
 807155b:	e9 c0 fe ff ff       	jmp    8071420 <_init+0x18>

08071560 <sleep@plt>:
 8071560:	ff 25 c8 21 0b 08    	jmp    *0x80b21c8
 8071566:	68 98 00 00 00       	push   $0x98
 807156b:	e9 b0 fe ff ff       	jmp    8071420 <_init+0x18>

08071570 <_ZSt17__throw_bad_allocv@plt>:
 8071570:	ff 25 cc 21 0b 08    	jmp    *0x80b21cc
 8071576:	68 a0 00 00 00       	push   $0xa0
 807157b:	e9 a0 fe ff ff       	jmp    8071420 <_init+0x18>

08071580 <pcap_open_live@plt>:
 8071580:	ff 25 d0 21 0b 08    	jmp    *0x80b21d0
 8071586:	68 a8 00 00 00       	push   $0xa8
 807158b:	e9 90 fe ff ff       	jmp    8071420 <_init+0x18>

08071590 <uncompress@plt>:
 8071590:	ff 25 d4 21 0b 08    	jmp    *0x80b21d4
 8071596:	68 b0 00 00 00       	push   $0xb0
 807159b:	e9 80 fe ff ff       	jmp    8071420 <_init+0x18>

080715a0 <__cxa_begin_catch@plt>:
 80715a0:	ff 25 d8 21 0b 08    	jmp    *0x80b21d8
 80715a6:	68 b8 00 00 00       	push   $0xb8
 80715ab:	e9 70 fe ff ff       	jmp    8071420 <_init+0x18>

080715b0 <_ZStrsIcSt11char_traitsIcESaIcEERSt13basic_istreamIT_T0_ES7_RSbIS4_S5_T1_E@plt>:
 80715b0:	ff 25 dc 21 0b 08    	jmp    *0x80b21dc
 80715b6:	68 c0 00 00 00       	push   $0xc0
 80715bb:	e9 60 fe ff ff       	jmp    8071420 <_init+0x18>

080715c0 <__divdi3@plt>:
 80715c0:	ff 25 e0 21 0b 08    	jmp    *0x80b21e0
 80715c6:	68 c8 00 00 00       	push   $0xc8
 80715cb:	e9 50 fe ff ff       	jmp    8071420 <_init+0x18>

080715d0 <_ZSt4endlIcSt11char_traitsIcEERSt13basic_ostreamIT_T0_ES6_@plt>:
 80715d0:	ff 25 e4 21 0b 08    	jmp    *0x80b21e4
 80715d6:	68 d0 00 00 00       	push   $0xd0
 80715db:	e9 40 fe ff ff       	jmp    8071420 <_init+0x18>

080715e0 <__cxa_allocate_exception@plt>:
 80715e0:	ff 25 e8 21 0b 08    	jmp    *0x80b21e8
 80715e6:	68 d8 00 00 00       	push   $0xd8
 80715eb:	e9 30 fe ff ff       	jmp    8071420 <_init+0x18>

080715f0 <pcap_geterr@plt>:
 80715f0:	ff 25 ec 21 0b 08    	jmp    *0x80b21ec
 80715f6:	68 e0 00 00 00       	push   $0xe0
 80715fb:	e9 20 fe ff ff       	jmp    8071420 <_init+0x18>

08071600 <_ZNKSs16find_last_not_ofEPKcj@plt>:
 8071600:	ff 25 f0 21 0b 08    	jmp    *0x80b21f0
 8071606:	68 e8 00 00 00       	push   $0xe8
 807160b:	e9 10 fe ff ff       	jmp    8071420 <_init+0x18>

08071610 <fwrite@plt>:
 8071610:	ff 25 f4 21 0b 08    	jmp    *0x80b21f4
 8071616:	68 f0 00 00 00       	push   $0xf0
 807161b:	e9 00 fe ff ff       	jmp    8071420 <_init+0x18>

08071620 <memcpy@plt>:
 8071620:	ff 25 f8 21 0b 08    	jmp    *0x80b21f8
 8071626:	68 f8 00 00 00       	push   $0xf8
 807162b:	e9 f0 fd ff ff       	jmp    8071420 <_init+0x18>

08071630 <_ZSt20__throw_length_errorPKc@plt>:
 8071630:	ff 25 fc 21 0b 08    	jmp    *0x80b21fc
 8071636:	68 00 01 00 00       	push   $0x100
 807163b:	e9 e0 fd ff ff       	jmp    8071420 <_init+0x18>

08071640 <malloc@plt>:
 8071640:	ff 25 00 22 0b 08    	jmp    *0x80b2200
 8071646:	68 08 01 00 00       	push   $0x108
 807164b:	e9 d0 fd ff ff       	jmp    8071420 <_init+0x18>

08071650 <strlen@plt>:
 8071650:	ff 25 04 22 0b 08    	jmp    *0x80b2204
 8071656:	68 10 01 00 00       	push   $0x110
 807165b:	e9 c0 fd ff ff       	jmp    8071420 <_init+0x18>

08071660 <_ZNSsC1ERKSs@plt>:
 8071660:	ff 25 08 22 0b 08    	jmp    *0x80b2208
 8071666:	68 18 01 00 00       	push   $0x118
 807166b:	e9 b0 fd ff ff       	jmp    8071420 <_init+0x18>

08071670 <pthread_setspecific@plt>:
 8071670:	ff 25 0c 22 0b 08    	jmp    *0x80b220c
 8071676:	68 20 01 00 00       	push   $0x120
 807167b:	e9 a0 fd ff ff       	jmp    8071420 <_init+0x18>

08071680 <__moddi3@plt>:
 8071680:	ff 25 10 22 0b 08    	jmp    *0x80b2210
 8071686:	68 28 01 00 00       	push   $0x128
 807168b:	e9 90 fd ff ff       	jmp    8071420 <_init+0x18>

08071690 <_ZSt28_Rb_tree_rebalance_for_erasePSt18_Rb_tree_node_baseRS_@plt>:
 8071690:	ff 25 14 22 0b 08    	jmp    *0x80b2214
 8071696:	68 30 01 00 00       	push   $0x130
 807169b:	e9 80 fd ff ff       	jmp    8071420 <_init+0x18>

080716a0 <pcap_freealldevs@plt>:
 80716a0:	ff 25 18 22 0b 08    	jmp    *0x80b2218
 80716a6:	68 38 01 00 00       	push   $0x138
 80716ab:	e9 70 fd ff ff       	jmp    8071420 <_init+0x18>

080716b0 <_ZNSirsERi@plt>:
 80716b0:	ff 25 1c 22 0b 08    	jmp    *0x80b221c
 80716b6:	68 40 01 00 00       	push   $0x140
 80716bb:	e9 60 fd ff ff       	jmp    8071420 <_init+0x18>

080716c0 <sprintf@plt>:
 80716c0:	ff 25 20 22 0b 08    	jmp    *0x80b2220
 80716c6:	68 48 01 00 00       	push   $0x148
 80716cb:	e9 50 fd ff ff       	jmp    8071420 <_init+0x18>

080716d0 <zmq_term@plt>:
 80716d0:	ff 25 24 22 0b 08    	jmp    *0x80b2224
 80716d6:	68 50 01 00 00       	push   $0x150
 80716db:	e9 40 fd ff ff       	jmp    8071420 <_init+0x18>

080716e0 <luaL_openlibs@plt>:
 80716e0:	ff 25 28 22 0b 08    	jmp    *0x80b2228
 80716e6:	68 58 01 00 00       	push   $0x158
 80716eb:	e9 30 fd ff ff       	jmp    8071420 <_init+0x18>

080716f0 <zmq_msg_send@plt>:
 80716f0:	ff 25 2c 22 0b 08    	jmp    *0x80b222c
 80716f6:	68 60 01 00 00       	push   $0x160
 80716fb:	e9 20 fd ff ff       	jmp    8071420 <_init+0x18>

08071700 <zmq_bind@plt>:
 8071700:	ff 25 30 22 0b 08    	jmp    *0x80b2230
 8071706:	68 68 01 00 00       	push   $0x168
 807170b:	e9 10 fd ff ff       	jmp    8071420 <_init+0x18>

08071710 <lua_pushinteger@plt>:
 8071710:	ff 25 34 22 0b 08    	jmp    *0x80b2234
 8071716:	68 70 01 00 00       	push   $0x170
 807171b:	e9 00 fd ff ff       	jmp    8071420 <_init+0x18>

08071720 <__cxa_atexit@plt>:
 8071720:	ff 25 38 22 0b 08    	jmp    *0x80b2238
 8071726:	68 78 01 00 00       	push   $0x178
 807172b:	e9 f0 fc ff ff       	jmp    8071420 <_init+0x18>

08071730 <__cxa_free_exception@plt>:
 8071730:	ff 25 3c 22 0b 08    	jmp    *0x80b223c
 8071736:	68 80 01 00 00       	push   $0x180
 807173b:	e9 e0 fc ff ff       	jmp    8071420 <_init+0x18>

08071740 <lua_close@plt>:
 8071740:	ff 25 40 22 0b 08    	jmp    *0x80b2240
 8071746:	68 88 01 00 00       	push   $0x188
 807174b:	e9 d0 fc ff ff       	jmp    8071420 <_init+0x18>

08071750 <zmq_msg_recv@plt>:
 8071750:	ff 25 44 22 0b 08    	jmp    *0x80b2244
 8071756:	68 90 01 00 00       	push   $0x190
 807175b:	e9 c0 fc ff ff       	jmp    8071420 <_init+0x18>

08071760 <_Znaj@plt>:
 8071760:	ff 25 48 22 0b 08    	jmp    *0x80b2248
 8071766:	68 98 01 00 00       	push   $0x198
 807176b:	e9 b0 fc ff ff       	jmp    8071420 <_init+0x18>

08071770 <__errno_location@plt>:
 8071770:	ff 25 4c 22 0b 08    	jmp    *0x80b224c
 8071776:	68 a0 01 00 00       	push   $0x1a0
 807177b:	e9 a0 fc ff ff       	jmp    8071420 <_init+0x18>

08071780 <strncpy@plt>:
 8071780:	ff 25 50 22 0b 08    	jmp    *0x80b2250
 8071786:	68 a8 01 00 00       	push   $0x1a8
 807178b:	e9 90 fc ff ff       	jmp    8071420 <_init+0x18>

08071790 <zmq_msg_data@plt>:
 8071790:	ff 25 54 22 0b 08    	jmp    *0x80b2254
 8071796:	68 b0 01 00 00       	push   $0x1b0
 807179b:	e9 80 fc ff ff       	jmp    8071420 <_init+0x18>

080717a0 <_ZNSt18basic_stringstreamIcSt11char_traitsIcESaIcEEC1ESt13_Ios_Openmode@plt>:
 80717a0:	ff 25 58 22 0b 08    	jmp    *0x80b2258
 80717a6:	68 b8 01 00 00       	push   $0x1b8
 80717ab:	e9 70 fc ff ff       	jmp    8071420 <_init+0x18>

080717b0 <_ZNSsaSERKSs@plt>:
 80717b0:	ff 25 5c 22 0b 08    	jmp    *0x80b225c
 80717b6:	68 c0 01 00 00       	push   $0x1c0
 80717bb:	e9 60 fc ff ff       	jmp    8071420 <_init+0x18>

080717c0 <lua_pushstring@plt>:
 80717c0:	ff 25 60 22 0b 08    	jmp    *0x80b2260
 80717c6:	68 c8 01 00 00       	push   $0x1c8
 80717cb:	e9 50 fc ff ff       	jmp    8071420 <_init+0x18>

080717d0 <_ZNSsC1Ev@plt>:
 80717d0:	ff 25 64 22 0b 08    	jmp    *0x80b2264
 80717d6:	68 d0 01 00 00       	push   $0x1d0
 80717db:	e9 40 fc ff ff       	jmp    8071420 <_init+0x18>

080717e0 <_ZdlPv@plt>:
 80717e0:	ff 25 68 22 0b 08    	jmp    *0x80b2268
 80717e6:	68 d8 01 00 00       	push   $0x1d8
 80717eb:	e9 30 fc ff ff       	jmp    8071420 <_init+0x18>

080717f0 <pthread_detach@plt>:
 80717f0:	ff 25 6c 22 0b 08    	jmp    *0x80b226c
 80717f6:	68 e0 01 00 00       	push   $0x1e0
 80717fb:	e9 20 fc ff ff       	jmp    8071420 <_init+0x18>

08071800 <pthread_create@plt>:
 8071800:	ff 25 70 22 0b 08    	jmp    *0x80b2270
 8071806:	68 e8 01 00 00       	push   $0x1e8
 807180b:	e9 10 fc ff ff       	jmp    8071420 <_init+0x18>

08071810 <__libc_start_main@plt>:
 8071810:	ff 25 74 22 0b 08    	jmp    *0x80b2274
 8071816:	68 f0 01 00 00       	push   $0x1f0
 807181b:	e9 00 fc ff ff       	jmp    8071420 <_init+0x18>

08071820 <zmq_connect@plt>:
 8071820:	ff 25 78 22 0b 08    	jmp    *0x80b2278
 8071826:	68 f8 01 00 00       	push   $0x1f8
 807182b:	e9 f0 fb ff ff       	jmp    8071420 <_init+0x18>

08071830 <_ZStlsISt11char_traitsIcEERSt13basic_ostreamIcT_ES5_PKc@plt>:
 8071830:	ff 25 7c 22 0b 08    	jmp    *0x80b227c
 8071836:	68 00 02 00 00       	push   $0x200
 807183b:	e9 e0 fb ff ff       	jmp    8071420 <_init+0x18>

08071840 <_ZN7log4cpp13PatternLayoutC1Ev@plt>:
 8071840:	ff 25 80 22 0b 08    	jmp    *0x80b2280
 8071846:	68 08 02 00 00       	push   $0x208
 807184b:	e9 d0 fb ff ff       	jmp    8071420 <_init+0x18>

08071850 <pcap_setfilter@plt>:
 8071850:	ff 25 84 22 0b 08    	jmp    *0x80b2284
 8071856:	68 10 02 00 00       	push   $0x210
 807185b:	e9 c0 fb ff ff       	jmp    8071420 <_init+0x18>

08071860 <_ZSt18_Rb_tree_decrementPSt18_Rb_tree_node_base@plt>:
 8071860:	ff 25 88 22 0b 08    	jmp    *0x80b2288
 8071866:	68 18 02 00 00       	push   $0x218
 807186b:	e9 b0 fb ff ff       	jmp    8071420 <_init+0x18>

08071870 <_ZNSolsEPFRSoS_E@plt>:
 8071870:	ff 25 8c 22 0b 08    	jmp    *0x80b228c
 8071876:	68 20 02 00 00       	push   $0x220
 807187b:	e9 a0 fb ff ff       	jmp    8071420 <_init+0x18>

08071880 <ntohl@plt>:
 8071880:	ff 25 90 22 0b 08    	jmp    *0x80b2290
 8071886:	68 28 02 00 00       	push   $0x228
 807188b:	e9 90 fb ff ff       	jmp    8071420 <_init+0x18>

08071890 <_ZNSaIcED1Ev@plt>:
 8071890:	ff 25 94 22 0b 08    	jmp    *0x80b2294
 8071896:	68 30 02 00 00       	push   $0x230
 807189b:	e9 80 fb ff ff       	jmp    8071420 <_init+0x18>

080718a0 <zmq_setsockopt@plt>:
 80718a0:	ff 25 98 22 0b 08    	jmp    *0x80b2298
 80718a6:	68 38 02 00 00       	push   $0x238
 80718ab:	e9 70 fb ff ff       	jmp    8071420 <_init+0x18>

080718b0 <_ZNSs6appendERKSs@plt>:
 80718b0:	ff 25 9c 22 0b 08    	jmp    *0x80b229c
 80718b6:	68 40 02 00 00       	push   $0x240
 80718bb:	e9 60 fb ff ff       	jmp    8071420 <_init+0x18>

080718c0 <_ZN7log4cpp8Category11getInstanceERKSs@plt>:
 80718c0:	ff 25 a0 22 0b 08    	jmp    *0x80b22a0
 80718c6:	68 48 02 00 00       	push   $0x248
 80718cb:	e9 50 fb ff ff       	jmp    8071420 <_init+0x18>

080718d0 <xmlParseFile@plt>:
 80718d0:	ff 25 a4 22 0b 08    	jmp    *0x80b22a4
 80718d6:	68 50 02 00 00       	push   $0x250
 80718db:	e9 40 fb ff ff       	jmp    8071420 <_init+0x18>

080718e0 <_ZNSsC1EPKcRKSaIcE@plt>:
 80718e0:	ff 25 a8 22 0b 08    	jmp    *0x80b22a8
 80718e6:	68 58 02 00 00       	push   $0x258
 80718eb:	e9 30 fb ff ff       	jmp    8071420 <_init+0x18>

080718f0 <_ZSt18_Rb_tree_incrementPKSt18_Rb_tree_node_base@plt>:
 80718f0:	ff 25 ac 22 0b 08    	jmp    *0x80b22ac
 80718f6:	68 60 02 00 00       	push   $0x260
 80718fb:	e9 20 fb ff ff       	jmp    8071420 <_init+0x18>

08071900 <_ZN7log4cpp19RollingFileAppenderC1ERKSsS2_jjbj@plt>:
 8071900:	ff 25 b0 22 0b 08    	jmp    *0x80b22b0
 8071906:	68 68 02 00 00       	push   $0x268
 807190b:	e9 10 fb ff ff       	jmp    8071420 <_init+0x18>

08071910 <free@plt>:
 8071910:	ff 25 b4 22 0b 08    	jmp    *0x80b22b4
 8071916:	68 70 02 00 00       	push   $0x270
 807191b:	e9 00 fb ff ff       	jmp    8071420 <_init+0x18>

08071920 <pcap_compile@plt>:
 8071920:	ff 25 b8 22 0b 08    	jmp    *0x80b22b8
 8071926:	68 78 02 00 00       	push   $0x278
 807192b:	e9 f0 fa ff ff       	jmp    8071420 <_init+0x18>

08071930 <__cxa_get_exception_ptr@plt>:
 8071930:	ff 25 bc 22 0b 08    	jmp    *0x80b22bc
 8071936:	68 80 02 00 00       	push   $0x280
 807193b:	e9 e0 fa ff ff       	jmp    8071420 <_init+0x18>

08071940 <__cxa_call_unexpected@plt>:
 8071940:	ff 25 c0 22 0b 08    	jmp    *0x80b22c0
 8071946:	68 88 02 00 00       	push   $0x288
 807194b:	e9 d0 fa ff ff       	jmp    8071420 <_init+0x18>

08071950 <_ZdaPv@plt>:
 8071950:	ff 25 c4 22 0b 08    	jmp    *0x80b22c4
 8071956:	68 90 02 00 00       	push   $0x290
 807195b:	e9 c0 fa ff ff       	jmp    8071420 <_init+0x18>

08071960 <_ZStlsIcSt11char_traitsIcESaIcEERSt13basic_ostreamIT_T0_ES7_RKSbIS4_S5_T1_E@plt>:
 8071960:	ff 25 c8 22 0b 08    	jmp    *0x80b22c8
 8071966:	68 98 02 00 00       	push   $0x298
 807196b:	e9 b0 fa ff ff       	jmp    8071420 <_init+0x18>

08071970 <zmq_errno@plt>:
 8071970:	ff 25 cc 22 0b 08    	jmp    *0x80b22cc
 8071976:	68 a0 02 00 00       	push   $0x2a0
 807197b:	e9 a0 fa ff ff       	jmp    8071420 <_init+0x18>

08071980 <lua_pushlightuserdata@plt>:
 8071980:	ff 25 d0 22 0b 08    	jmp    *0x80b22d0
 8071986:	68 a8 02 00 00       	push   $0x2a8
 807198b:	e9 90 fa ff ff       	jmp    8071420 <_init+0x18>

08071990 <pthread_exit@plt>:
 8071990:	ff 25 d4 22 0b 08    	jmp    *0x80b22d4
 8071996:	68 b0 02 00 00       	push   $0x2b0
 807199b:	e9 80 fa ff ff       	jmp    8071420 <_init+0x18>

080719a0 <_ZNKSs5c_strEv@plt>:
 80719a0:	ff 25 d8 22 0b 08    	jmp    *0x80b22d8
 80719a6:	68 b8 02 00 00       	push   $0x2b8
 80719ab:	e9 70 fa ff ff       	jmp    8071420 <_init+0x18>

080719b0 <pthread_join@plt>:
 80719b0:	ff 25 dc 22 0b 08    	jmp    *0x80b22dc
 80719b6:	68 c0 02 00 00       	push   $0x2c0
 80719bb:	e9 60 fa ff ff       	jmp    8071420 <_init+0x18>

080719c0 <_ZNSsaSEPKc@plt>:
 80719c0:	ff 25 e0 22 0b 08    	jmp    *0x80b22e0
 80719c6:	68 c8 02 00 00       	push   $0x2c8
 80719cb:	e9 50 fa ff ff       	jmp    8071420 <_init+0x18>

080719d0 <printf@plt>:
 80719d0:	ff 25 e4 22 0b 08    	jmp    *0x80b22e4
 80719d6:	68 d0 02 00 00       	push   $0x2d0
 80719db:	e9 40 fa ff ff       	jmp    8071420 <_init+0x18>

080719e0 <__cxa_rethrow@plt>:
 80719e0:	ff 25 e8 22 0b 08    	jmp    *0x80b22e8
 80719e6:	68 d8 02 00 00       	push   $0x2d8
 80719eb:	e9 30 fa ff ff       	jmp    8071420 <_init+0x18>

080719f0 <luaL_newstate@plt>:
 80719f0:	ff 25 ec 22 0b 08    	jmp    *0x80b22ec
 80719f6:	68 e0 02 00 00       	push   $0x2e0
 80719fb:	e9 20 fa ff ff       	jmp    8071420 <_init+0x18>

08071a00 <zmq_close@plt>:
 8071a00:	ff 25 f0 22 0b 08    	jmp    *0x80b22f0
 8071a06:	68 e8 02 00 00       	push   $0x2e8
 8071a0b:	e9 10 fa ff ff       	jmp    8071420 <_init+0x18>

08071a10 <zmq_msg_close@plt>:
 8071a10:	ff 25 f4 22 0b 08    	jmp    *0x80b22f4
 8071a16:	68 f0 02 00 00       	push   $0x2f0
 8071a1b:	e9 00 fa ff ff       	jmp    8071420 <_init+0x18>

08071a20 <_ZNSspLEPKc@plt>:
 8071a20:	ff 25 f8 22 0b 08    	jmp    *0x80b22f8
 8071a26:	68 f8 02 00 00       	push   $0x2f8
 8071a2b:	e9 f0 f9 ff ff       	jmp    8071420 <_init+0x18>

08071a30 <_ZNSt18basic_stringstreamIcSt11char_traitsIcESaIcEED1Ev@plt>:
 8071a30:	ff 25 fc 22 0b 08    	jmp    *0x80b22fc
 8071a36:	68 00 03 00 00       	push   $0x300
 8071a3b:	e9 e0 f9 ff ff       	jmp    8071420 <_init+0x18>

08071a40 <_ZNSt8ios_base4InitC1Ev@plt>:
 8071a40:	ff 25 00 23 0b 08    	jmp    *0x80b2300
 8071a46:	68 08 03 00 00       	push   $0x308
 8071a4b:	e9 d0 f9 ff ff       	jmp    8071420 <_init+0x18>

08071a50 <atoi@plt>:
 8071a50:	ff 25 04 23 0b 08    	jmp    *0x80b2304
 8071a56:	68 10 03 00 00       	push   $0x310
 8071a5b:	e9 c0 f9 ff ff       	jmp    8071420 <_init+0x18>

08071a60 <_ZNSsD1Ev@plt>:
 8071a60:	ff 25 08 23 0b 08    	jmp    *0x80b2308
 8071a66:	68 18 03 00 00       	push   $0x318
 8071a6b:	e9 b0 f9 ff ff       	jmp    8071420 <_init+0x18>

08071a70 <xmlNewNode@plt>:
 8071a70:	ff 25 0c 23 0b 08    	jmp    *0x80b230c
 8071a76:	68 20 03 00 00       	push   $0x320
 8071a7b:	e9 a0 f9 ff ff       	jmp    8071420 <_init+0x18>

08071a80 <__cxa_end_catch@plt>:
 8071a80:	ff 25 10 23 0b 08    	jmp    *0x80b2310
 8071a86:	68 28 03 00 00       	push   $0x328
 8071a8b:	e9 90 f9 ff ff       	jmp    8071420 <_init+0x18>

08071a90 <memset@plt>:
 8071a90:	ff 25 14 23 0b 08    	jmp    *0x80b2314
 8071a96:	68 30 03 00 00       	push   $0x330
 8071a9b:	e9 80 f9 ff ff       	jmp    8071420 <_init+0x18>

08071aa0 <putchar@plt>:
 8071aa0:	ff 25 18 23 0b 08    	jmp    *0x80b2318
 8071aa6:	68 38 03 00 00       	push   $0x338
 8071aab:	e9 70 f9 ff ff       	jmp    8071420 <_init+0x18>

08071ab0 <lua_settop@plt>:
 8071ab0:	ff 25 1c 23 0b 08    	jmp    *0x80b231c
 8071ab6:	68 40 03 00 00       	push   $0x340
 8071abb:	e9 60 f9 ff ff       	jmp    8071420 <_init+0x18>

08071ac0 <__gxx_personality_v0@plt>:
 8071ac0:	ff 25 20 23 0b 08    	jmp    *0x80b2320
 8071ac6:	68 48 03 00 00       	push   $0x348
 8071acb:	e9 50 f9 ff ff       	jmp    8071420 <_init+0x18>

08071ad0 <pthread_self@plt>:
 8071ad0:	ff 25 24 23 0b 08    	jmp    *0x80b2324
 8071ad6:	68 50 03 00 00       	push   $0x350
 8071adb:	e9 40 f9 ff ff       	jmp    8071420 <_init+0x18>

08071ae0 <_ZNKSs12find_last_ofEPKcj@plt>:
 8071ae0:	ff 25 28 23 0b 08    	jmp    *0x80b2328
 8071ae6:	68 58 03 00 00       	push   $0x358
 8071aeb:	e9 30 f9 ff ff       	jmp    8071420 <_init+0x18>

08071af0 <strftime@plt>:
 8071af0:	ff 25 2c 23 0b 08    	jmp    *0x80b232c
 8071af6:	68 60 03 00 00       	push   $0x360
 8071afb:	e9 20 f9 ff ff       	jmp    8071420 <_init+0x18>

08071b00 <_ZNSolsEt@plt>:
 8071b00:	ff 25 30 23 0b 08    	jmp    *0x80b2330
 8071b06:	68 68 03 00 00       	push   $0x368
 8071b0b:	e9 10 f9 ff ff       	jmp    8071420 <_init+0x18>

08071b10 <luaL_loadfile@plt>:
 8071b10:	ff 25 34 23 0b 08    	jmp    *0x80b2334
 8071b16:	68 70 03 00 00       	push   $0x370
 8071b1b:	e9 00 f9 ff ff       	jmp    8071420 <_init+0x18>

08071b20 <__cxa_throw@plt>:
 8071b20:	ff 25 38 23 0b 08    	jmp    *0x80b2338
 8071b26:	68 78 03 00 00       	push   $0x378
 8071b2b:	e9 f0 f8 ff ff       	jmp    8071420 <_init+0x18>

08071b30 <_ZNSolsEi@plt>:
 8071b30:	ff 25 3c 23 0b 08    	jmp    *0x80b233c
 8071b36:	68 80 03 00 00       	push   $0x380
 8071b3b:	e9 e0 f8 ff ff       	jmp    8071420 <_init+0x18>

08071b40 <_ZN7log4cpp8Category4infoEPKcz@plt>:
 8071b40:	ff 25 40 23 0b 08    	jmp    *0x80b2340
 8071b46:	68 88 03 00 00       	push   $0x388
 8071b4b:	e9 d0 f8 ff ff       	jmp    8071420 <_init+0x18>

08071b50 <_Unwind_Resume@plt>:
 8071b50:	ff 25 44 23 0b 08    	jmp    *0x80b2344
 8071b56:	68 90 03 00 00       	push   $0x390
 8071b5b:	e9 c0 f8 ff ff       	jmp    8071420 <_init+0x18>

08071b60 <_ZNSaIcEC1Ev@plt>:
 8071b60:	ff 25 48 23 0b 08    	jmp    *0x80b2348
 8071b66:	68 98 03 00 00       	push   $0x398
 8071b6b:	e9 b0 f8 ff ff       	jmp    8071420 <_init+0x18>

08071b70 <zmq_socket@plt>:
 8071b70:	ff 25 4c 23 0b 08    	jmp    *0x80b234c
 8071b76:	68 a0 03 00 00       	push   $0x3a0
 8071b7b:	e9 a0 f8 ff ff       	jmp    8071420 <_init+0x18>

08071b80 <pthread_once@plt>:
 8071b80:	ff 25 50 23 0b 08    	jmp    *0x80b2350
 8071b86:	68 a8 03 00 00       	push   $0x3a8
 8071b8b:	e9 90 f8 ff ff       	jmp    8071420 <_init+0x18>

08071b90 <zmq_msg_init@plt>:
 8071b90:	ff 25 54 23 0b 08    	jmp    *0x80b2354
 8071b96:	68 b0 03 00 00       	push   $0x3b0
 8071b9b:	e9 80 f8 ff ff       	jmp    8071420 <_init+0x18>

08071ba0 <fclose@plt>:
 8071ba0:	ff 25 58 23 0b 08    	jmp    *0x80b2358
 8071ba6:	68 b8 03 00 00       	push   $0x3b8
 8071bab:	e9 70 f8 ff ff       	jmp    8071420 <_init+0x18>

08071bb0 <pcap_datalink@plt>:
 8071bb0:	ff 25 5c 23 0b 08    	jmp    *0x80b235c
 8071bb6:	68 c0 03 00 00       	push   $0x3c0
 8071bbb:	e9 60 f8 ff ff       	jmp    8071420 <_init+0x18>

08071bc0 <zmq_init@plt>:
 8071bc0:	ff 25 60 23 0b 08    	jmp    *0x80b2360
 8071bc6:	68 c8 03 00 00       	push   $0x3c8
 8071bcb:	e9 50 f8 ff ff       	jmp    8071420 <_init+0x18>

08071bd0 <memmove@plt>:
 8071bd0:	ff 25 64 23 0b 08    	jmp    *0x80b2364
 8071bd6:	68 d0 03 00 00       	push   $0x3d0
 8071bdb:	e9 40 f8 ff ff       	jmp    8071420 <_init+0x18>

08071be0 <_ZNSs6appendEPKc@plt>:
 8071be0:	ff 25 68 23 0b 08    	jmp    *0x80b2368
 8071be6:	68 d8 03 00 00       	push   $0x3d8
 8071beb:	e9 30 f8 ff ff       	jmp    8071420 <_init+0x18>

08071bf0 <_ZNSt9exceptionD2Ev@plt>:
 8071bf0:	ff 25 6c 23 0b 08    	jmp    *0x80b236c
 8071bf6:	68 e0 03 00 00       	push   $0x3e0
 8071bfb:	e9 20 f8 ff ff       	jmp    8071420 <_init+0x18>

08071c00 <__gmon_start__@plt>:
 8071c00:	ff 25 70 23 0b 08    	jmp    *0x80b2370
 8071c06:	68 e8 03 00 00       	push   $0x3e8
 8071c0b:	e9 10 f8 ff ff       	jmp    8071420 <_init+0x18>

08071c10 <strcpy@plt>:
 8071c10:	ff 25 74 23 0b 08    	jmp    *0x80b2374
 8071c16:	68 f0 03 00 00       	push   $0x3f0
 8071c1b:	e9 00 f8 ff ff       	jmp    8071420 <_init+0x18>

08071c20 <xmlGetProp@plt>:
 8071c20:	ff 25 78 23 0b 08    	jmp    *0x80b2378
 8071c26:	68 f8 03 00 00       	push   $0x3f8
 8071c2b:	e9 f0 f7 ff ff       	jmp    8071420 <_init+0x18>

08071c30 <__cxa_pure_virtual@plt>:
 8071c30:	ff 25 7c 23 0b 08    	jmp    *0x80b237c
 8071c36:	68 00 04 00 00       	push   $0x400
 8071c3b:	e9 e0 f7 ff ff       	jmp    8071420 <_init+0x18>

08071c40 <localtime@plt>:
 8071c40:	ff 25 80 23 0b 08    	jmp    *0x80b2380
 8071c46:	68 08 04 00 00       	push   $0x408
 8071c4b:	e9 d0 f7 ff ff       	jmp    8071420 <_init+0x18>

08071c50 <__assert_fail@plt>:
 8071c50:	ff 25 84 23 0b 08    	jmp    *0x80b2384
 8071c56:	68 10 04 00 00       	push   $0x410
 8071c5b:	e9 c0 f7 ff ff       	jmp    8071420 <_init+0x18>

08071c60 <xmlXPathEvalExpression@plt>:
 8071c60:	ff 25 88 23 0b 08    	jmp    *0x80b2388
 8071c66:	68 18 04 00 00       	push   $0x418
 8071c6b:	e9 b0 f7 ff ff       	jmp    8071420 <_init+0x18>

08071c70 <_ZNKSs5emptyEv@plt>:
 8071c70:	ff 25 8c 23 0b 08    	jmp    *0x80b238c
 8071c76:	68 20 04 00 00       	push   $0x420
 8071c7b:	e9 a0 f7 ff ff       	jmp    8071420 <_init+0x18>

08071c80 <_ZNKSs7compareERKSs@plt>:
 8071c80:	ff 25 90 23 0b 08    	jmp    *0x80b2390
 8071c86:	68 28 04 00 00       	push   $0x428
 8071c8b:	e9 90 f7 ff ff       	jmp    8071420 <_init+0x18>

08071c90 <fopen@plt>:
 8071c90:	ff 25 94 23 0b 08    	jmp    *0x80b2394
 8071c96:	68 30 04 00 00       	push   $0x430
 8071c9b:	e9 80 f7 ff ff       	jmp    8071420 <_init+0x18>

08071ca0 <_ZNSt8ios_base4InitD1Ev@plt>:
 8071ca0:	ff 25 98 23 0b 08    	jmp    *0x80b2398
 8071ca6:	68 38 04 00 00       	push   $0x438
 8071cab:	e9 70 f7 ff ff       	jmp    8071420 <_init+0x18>

08071cb0 <__pthread_key_create@plt>:
 8071cb0:	ff 25 9c 23 0b 08    	jmp    *0x80b239c
 8071cb6:	68 40 04 00 00       	push   $0x440
 8071cbb:	e9 60 f7 ff ff       	jmp    8071420 <_init+0x18>
Disassembly of section .text:

08071cc0 <_start>:
 8071cc0:	31 ed                	xor    %ebp,%ebp
 8071cc2:	5e                   	pop    %esi
 8071cc3:	89 e1                	mov    %esp,%ecx
 8071cc5:	83 e4 f0             	and    $0xfffffff0,%esp
 8071cc8:	50                   	push   %eax
 8071cc9:	54                   	push   %esp
 8071cca:	52                   	push   %edx
 8071ccb:	68 80 5e 09 08       	push   $0x8095e80
 8071cd0:	68 90 5e 09 08       	push   $0x8095e90
 8071cd5:	51                   	push   %ecx
 8071cd6:	56                   	push   %esi
 8071cd7:	68 9f 29 07 08       	push   $0x807299f
 8071cdc:	e8 2f fb ff ff       	call   8071810 <__libc_start_main@plt>
 8071ce1:	f4                   	hlt    
 8071ce2:	90                   	nop    
 8071ce3:	90                   	nop    

08071ce4 <call_gmon_start>:
 8071ce4:	55                   	push   %ebp
 8071ce5:	89 e5                	mov    %esp,%ebp
 8071ce7:	53                   	push   %ebx
 8071ce8:	83 ec 04             	sub    $0x4,%esp
 8071ceb:	e8 00 00 00 00       	call   8071cf0 <call_gmon_start+0xc>
 8071cf0:	5b                   	pop    %ebx
 8071cf1:	81 c3 80 04 04 00    	add    $0x40480,%ebx
 8071cf7:	8b 93 fc ff ff ff    	mov    0xfffffffc(%ebx),%edx
 8071cfd:	85 d2                	test   %edx,%edx
 8071cff:	74 05                	je     8071d06 <call_gmon_start+0x22>
 8071d01:	e8 fa fe ff ff       	call   8071c00 <__gmon_start__@plt>
 8071d06:	58                   	pop    %eax
 8071d07:	5b                   	pop    %ebx
 8071d08:	c9                   	leave  
 8071d09:	c3                   	ret    
 8071d0a:	90                   	nop    
 8071d0b:	90                   	nop    
 8071d0c:	90                   	nop    
 8071d0d:	90                   	nop    
 8071d0e:	90                   	nop    
 8071d0f:	90                   	nop    

08071d10 <deregister_tm_clones>:
 8071d10:	b8 ab 6c 0b 08       	mov    $0x80b6cab,%eax
 8071d15:	2d a8 6c 0b 08       	sub    $0x80b6ca8,%eax
 8071d1a:	83 f8 06             	cmp    $0x6,%eax
 8071d1d:	77 01                	ja     8071d20 <deregister_tm_clones+0x10>
 8071d1f:	c3                   	ret    
 8071d20:	b8 00 00 00 00       	mov    $0x0,%eax
 8071d25:	85 c0                	test   %eax,%eax
 8071d27:	74 f6                	je     8071d1f <deregister_tm_clones+0xf>
 8071d29:	55                   	push   %ebp
 8071d2a:	89 e5                	mov    %esp,%ebp
 8071d2c:	83 ec 18             	sub    $0x18,%esp
 8071d2f:	c7 04 24 a8 6c 0b 08 	movl   $0x80b6ca8,(%esp)
 8071d36:	ff d0                	call   *%eax
 8071d38:	c9                   	leave  
 8071d39:	c3                   	ret    
 8071d3a:	8d b6 00 00 00 00    	lea    0x0(%esi),%esi

08071d40 <register_tm_clones>:
 8071d40:	b8 a8 6c 0b 08       	mov    $0x80b6ca8,%eax
 8071d45:	2d a8 6c 0b 08       	sub    $0x80b6ca8,%eax
 8071d4a:	c1 f8 02             	sar    $0x2,%eax
 8071d4d:	89 c2                	mov    %eax,%edx
 8071d4f:	c1 ea 1f             	shr    $0x1f,%edx
 8071d52:	01 d0                	add    %edx,%eax
 8071d54:	d1 f8                	sar    %eax
 8071d56:	75 01                	jne    8071d59 <register_tm_clones+0x19>
 8071d58:	c3                   	ret    
 8071d59:	ba 00 00 00 00       	mov    $0x0,%edx
 8071d5e:	85 d2                	test   %edx,%edx
 8071d60:	74 f6                	je     8071d58 <register_tm_clones+0x18>
 8071d62:	55                   	push   %ebp
 8071d63:	89 e5                	mov    %esp,%ebp
 8071d65:	83 ec 18             	sub    $0x18,%esp
 8071d68:	89 44 24 04          	mov    %eax,0x4(%esp)
 8071d6c:	c7 04 24 a8 6c 0b 08 	movl   $0x80b6ca8,(%esp)
 8071d73:	ff d2                	call   *%edx
 8071d75:	c9                   	leave  
 8071d76:	c3                   	ret    
 8071d77:	89 f6                	mov    %esi,%esi
 8071d79:	8d bc 27 00 00 00 00 	lea    0x0(%edi),%edi

08071d80 <__do_global_dtors_aux>:
 8071d80:	80 3d 60 6e 0b 08 00 	cmpb   $0x0,0x80b6e60
 8071d87:	75 50                	jne    8071dd9 <__do_global_dtors_aux+0x59>
 8071d89:	55                   	push   %ebp
 8071d8a:	89 e5                	mov    %esp,%ebp
 8071d8c:	53                   	push   %ebx
 8071d8d:	bb 44 20 0b 08       	mov    $0x80b2044,%ebx
 8071d92:	83 ec 04             	sub    $0x4,%esp
 8071d95:	a1 64 6e 0b 08       	mov    0x80b6e64,%eax
 8071d9a:	81 eb 40 20 0b 08    	sub    $0x80b2040,%ebx
 8071da0:	c1 fb 02             	sar    $0x2,%ebx
 8071da3:	83 eb 01             	sub    $0x1,%ebx
 8071da6:	39 d8                	cmp    %ebx,%eax
 8071da8:	73 1e                	jae    8071dc8 <__do_global_dtors_aux+0x48>
 8071daa:	8d b6 00 00 00 00    	lea    0x0(%esi),%esi
 8071db0:	83 c0 01             	add    $0x1,%eax
 8071db3:	a3 64 6e 0b 08       	mov    %eax,0x80b6e64
 8071db8:	ff 14 85 40 20 0b 08 	call   *0x80b2040(,%eax,4)
 8071dbf:	a1 64 6e 0b 08       	mov    0x80b6e64,%eax
 8071dc4:	39 d8                	cmp    %ebx,%eax
 8071dc6:	72 e8                	jb     8071db0 <__do_global_dtors_aux+0x30>
 8071dc8:	e8 43 ff ff ff       	call   8071d10 <deregister_tm_clones>
 8071dcd:	c6 05 60 6e 0b 08 01 	movb   $0x1,0x80b6e60
 8071dd4:	83 c4 04             	add    $0x4,%esp
 8071dd7:	5b                   	pop    %ebx
 8071dd8:	5d                   	pop    %ebp
 8071dd9:	c3                   	ret    
 8071dda:	8d b6 00 00 00 00    	lea    0x0(%esi),%esi

08071de0 <frame_dummy>:
 8071de0:	a1 48 20 0b 08       	mov    0x80b2048,%eax
 8071de5:	85 c0                	test   %eax,%eax
 8071de7:	74 1f                	je     8071e08 <frame_dummy+0x28>
 8071de9:	b8 00 00 00 00       	mov    $0x0,%eax
 8071dee:	85 c0                	test   %eax,%eax
 8071df0:	74 16                	je     8071e08 <frame_dummy+0x28>
 8071df2:	55                   	push   %ebp
 8071df3:	89 e5                	mov    %esp,%ebp
 8071df5:	83 ec 18             	sub    $0x18,%esp
 8071df8:	c7 04 24 48 20 0b 08 	movl   $0x80b2048,(%esp)
 8071dff:	ff d0                	call   *%eax
 8071e01:	c9                   	leave  
 8071e02:	e9 39 ff ff ff       	jmp    8071d40 <register_tm_clones>
 8071e07:	90                   	nop    
 8071e08:	e9 33 ff ff ff       	jmp    8071d40 <register_tm_clones>
 8071e0d:	90                   	nop    
 8071e0e:	90                   	nop    
 8071e0f:	90                   	nop    

08071e10 <_Z19get_network_adapterv>:
 8071e10:	55                   	push   %ebp
 8071e11:	89 e5                	mov    %esp,%ebp
 8071e13:	53                   	push   %ebx
 8071e14:	83 ec 34             	sub    $0x34,%esp
 8071e17:	c7 04 24 00 01 00 00 	movl   $0x100,(%esp)
 8071e1e:	e8 3d f9 ff ff       	call   8071760 <_Znaj@plt>
 8071e23:	89 45 ec             	mov    %eax,0xffffffec(%ebp)
 8071e26:	c7 45 f4 00 00 00 00 	movl   $0x0,0xfffffff4(%ebp)
 8071e2d:	c7 45 e4 00 00 00 00 	movl   $0x0,0xffffffe4(%ebp)
 8071e34:	8b 45 ec             	mov    0xffffffec(%ebp),%eax
 8071e37:	89 44 24 04          	mov    %eax,0x4(%esp)
 8071e3b:	8d 45 e8             	lea    0xffffffe8(%ebp),%eax
 8071e3e:	89 04 24             	mov    %eax,(%esp)
 8071e41:	e8 6a f6 ff ff       	call   80714b0 <pcap_findalldevs@plt>
 8071e46:	83 f8 ff             	cmp    $0xffffffff,%eax
 8071e49:	0f 94 c0             	sete   %al
 8071e4c:	84 c0                	test   %al,%al
 8071e4e:	74 3d                	je     8071e8d <_Z19get_network_adapterv+0x7d>
 8071e50:	c7 44 24 04 03 60 09 	movl   $0x8096003,0x4(%esp)
 8071e57:	08 
 8071e58:	c7 04 24 08 6d 0b 08 	movl   $0x80b6d08,(%esp)
 8071e5f:	e8 cc f9 ff ff       	call   8071830 <_ZStlsISt11char_traitsIcEERSt13basic_ostreamIcT_ES5_PKc@plt>
 8071e64:	8b 55 ec             	mov    0xffffffec(%ebp),%edx
 8071e67:	89 54 24 04          	mov    %edx,0x4(%esp)
 8071e6b:	89 04 24             	mov    %eax,(%esp)
 8071e6e:	e8 bd f9 ff ff       	call   8071830 <_ZStlsISt11char_traitsIcEERSt13basic_ostreamIcT_ES5_PKc@plt>
 8071e73:	c7 44 24 04 d0 15 07 	movl   $0x80715d0,0x4(%esp)
 8071e7a:	08 
 8071e7b:	89 04 24             	mov    %eax,(%esp)
 8071e7e:	e8 ed f9 ff ff       	call   8071870 <_ZNSolsEPFRSoS_E@plt>
 8071e83:	b8 ff ff ff ff       	mov    $0xffffffff,%eax
 8071e88:	e9 73 01 00 00       	jmp    8072000 <_Z19get_network_adapterv+0x1f0>
 8071e8d:	83 7d ec 00          	cmpl   $0x0,0xffffffec(%ebp)
 8071e91:	74 18                	je     8071eab <_Z19get_network_adapterv+0x9b>
 8071e93:	83 7d ec 00          	cmpl   $0x0,0xffffffec(%ebp)
 8071e97:	74 0b                	je     8071ea4 <_Z19get_network_adapterv+0x94>
 8071e99:	8b 45 ec             	mov    0xffffffec(%ebp),%eax
 8071e9c:	89 04 24             	mov    %eax,(%esp)
 8071e9f:	e8 ac fa ff ff       	call   8071950 <_ZdaPv@plt>
 8071ea4:	c7 45 ec 00 00 00 00 	movl   $0x0,0xffffffec(%ebp)
 8071eab:	8b 45 e8             	mov    0xffffffe8(%ebp),%eax
 8071eae:	89 45 f0             	mov    %eax,0xfffffff0(%ebp)
 8071eb1:	e9 b7 00 00 00       	jmp    8071f6d <_Z19get_network_adapterv+0x15d>
 8071eb6:	8b 45 f0             	mov    0xfffffff0(%ebp),%eax
 8071eb9:	8b 58 04             	mov    0x4(%eax),%ebx
 8071ebc:	83 45 f4 01          	addl   $0x1,0xfffffff4(%ebp)
 8071ec0:	8b 45 f4             	mov    0xfffffff4(%ebp),%eax
 8071ec3:	89 44 24 04          	mov    %eax,0x4(%esp)
 8071ec7:	c7 04 24 08 6d 0b 08 	movl   $0x80b6d08,(%esp)
 8071ece:	e8 5d fc ff ff       	call   8071b30 <_ZNSolsEi@plt>
 8071ed3:	c7 44 24 04 21 60 09 	movl   $0x8096021,0x4(%esp)
 8071eda:	08 
 8071edb:	89 04 24             	mov    %eax,(%esp)
 8071ede:	e8 4d f9 ff ff       	call   8071830 <_ZStlsISt11char_traitsIcEERSt13basic_ostreamIcT_ES5_PKc@plt>
 8071ee3:	89 5c 24 04          	mov    %ebx,0x4(%esp)
 8071ee7:	89 04 24             	mov    %eax,(%esp)
 8071eea:	e8 41 f9 ff ff       	call   8071830 <_ZStlsISt11char_traitsIcEERSt13basic_ostreamIcT_ES5_PKc@plt>
 8071eef:	8b 45 f0             	mov    0xfffffff0(%ebp),%eax
 8071ef2:	8b 40 08             	mov    0x8(%eax),%eax
 8071ef5:	85 c0                	test   %eax,%eax
 8071ef7:	74 48                	je     8071f41 <_Z19get_network_adapterv+0x131>
 8071ef9:	8b 45 f0             	mov    0xfffffff0(%ebp),%eax
 8071efc:	8b 58 08             	mov    0x8(%eax),%ebx
 8071eff:	c7 44 24 04 24 60 09 	movl   $0x8096024,0x4(%esp)
 8071f06:	08 
 8071f07:	c7 04 24 08 6d 0b 08 	movl   $0x80b6d08,(%esp)
 8071f0e:	e8 1d f9 ff ff       	call   8071830 <_ZStlsISt11char_traitsIcEERSt13basic_ostreamIcT_ES5_PKc@plt>
 8071f13:	89 5c 24 04          	mov    %ebx,0x4(%esp)
 8071f17:	89 04 24             	mov    %eax,(%esp)
 8071f1a:	e8 11 f9 ff ff       	call   8071830 <_ZStlsISt11char_traitsIcEERSt13basic_ostreamIcT_ES5_PKc@plt>
 8071f1f:	c7 44 24 04 27 60 09 	movl   $0x8096027,0x4(%esp)
 8071f26:	08 
 8071f27:	89 04 24             	mov    %eax,(%esp)
 8071f2a:	e8 01 f9 ff ff       	call   8071830 <_ZStlsISt11char_traitsIcEERSt13basic_ostreamIcT_ES5_PKc@plt>
 8071f2f:	c7 44 24 04 d0 15 07 	movl   $0x80715d0,0x4(%esp)
 8071f36:	08 
 8071f37:	89 04 24             	mov    %eax,(%esp)
 8071f3a:	e8 31 f9 ff ff       	call   8071870 <_ZNSolsEPFRSoS_E@plt>
 8071f3f:	eb 24                	jmp    8071f65 <_Z19get_network_adapterv+0x155>
 8071f41:	c7 44 24 04 29 60 09 	movl   $0x8096029,0x4(%esp)
 8071f48:	08 
 8071f49:	c7 04 24 08 6d 0b 08 	movl   $0x80b6d08,(%esp)
 8071f50:	e8 db f8 ff ff       	call   8071830 <_ZStlsISt11char_traitsIcEERSt13basic_ostreamIcT_ES5_PKc@plt>
 8071f55:	c7 44 24 04 d0 15 07 	movl   $0x80715d0,0x4(%esp)
 8071f5c:	08 
 8071f5d:	89 04 24             	mov    %eax,(%esp)
 8071f60:	e8 0b f9 ff ff       	call   8071870 <_ZNSolsEPFRSoS_E@plt>
 8071f65:	8b 45 f0             	mov    0xfffffff0(%ebp),%eax
 8071f68:	8b 00                	mov    (%eax),%eax
 8071f6a:	89 45 f0             	mov    %eax,0xfffffff0(%ebp)
 8071f6d:	83 7d f0 00          	cmpl   $0x0,0xfffffff0(%ebp)
 8071f71:	0f 85 3f ff ff ff    	jne    8071eb6 <_Z19get_network_adapterv+0xa6>
 8071f77:	c7 44 24 04 3c 60 09 	movl   $0x809603c,0x4(%esp)
 8071f7e:	08 
 8071f7f:	c7 04 24 08 6d 0b 08 	movl   $0x80b6d08,(%esp)
 8071f86:	e8 a5 f8 ff ff       	call   8071830 <_ZStlsISt11char_traitsIcEERSt13basic_ostreamIcT_ES5_PKc@plt>
 8071f8b:	c7 44 24 04 d0 15 07 	movl   $0x80715d0,0x4(%esp)
 8071f92:	08 
 8071f93:	89 04 24             	mov    %eax,(%esp)
 8071f96:	e8 d5 f8 ff ff       	call   8071870 <_ZNSolsEPFRSoS_E@plt>
 8071f9b:	8d 45 e4             	lea    0xffffffe4(%ebp),%eax
 8071f9e:	89 44 24 04          	mov    %eax,0x4(%esp)
 8071fa2:	c7 04 24 c8 6d 0b 08 	movl   $0x80b6dc8,(%esp)
 8071fa9:	e8 02 f7 ff ff       	call   80716b0 <_ZNSirsERi@plt>
 8071fae:	8b 45 e4             	mov    0xffffffe4(%ebp),%eax
 8071fb1:	85 c0                	test   %eax,%eax
 8071fb3:	7e 08                	jle    8071fbd <_Z19get_network_adapterv+0x1ad>
 8071fb5:	8b 45 e4             	mov    0xffffffe4(%ebp),%eax
 8071fb8:	3b 45 f4             	cmp    0xfffffff4(%ebp),%eax
 8071fbb:	7e 36                	jle    8071ff3 <_Z19get_network_adapterv+0x1e3>
 8071fbd:	c7 44 24 04 6b 60 09 	movl   $0x809606b,0x4(%esp)
 8071fc4:	08 
 8071fc5:	c7 04 24 08 6d 0b 08 	movl   $0x80b6d08,(%esp)
 8071fcc:	e8 5f f8 ff ff       	call   8071830 <_ZStlsISt11char_traitsIcEERSt13basic_ostreamIcT_ES5_PKc@plt>
 8071fd1:	c7 44 24 04 d0 15 07 	movl   $0x80715d0,0x4(%esp)
 8071fd8:	08 
 8071fd9:	89 04 24             	mov    %eax,(%esp)
 8071fdc:	e8 8f f8 ff ff       	call   8071870 <_ZNSolsEPFRSoS_E@plt>
 8071fe1:	8b 45 e8             	mov    0xffffffe8(%ebp),%eax
 8071fe4:	89 04 24             	mov    %eax,(%esp)
 8071fe7:	e8 b4 f6 ff ff       	call   80716a0 <pcap_freealldevs@plt>
 8071fec:	b8 fe ff ff ff       	mov    $0xfffffffe,%eax
 8071ff1:	eb 0d                	jmp    8072000 <_Z19get_network_adapterv+0x1f0>
 8071ff3:	8b 45 e4             	mov    0xffffffe4(%ebp),%eax
 8071ff6:	eb 08                	jmp    8072000 <_Z19get_network_adapterv+0x1f0>
 8071ff8:	89 04 24             	mov    %eax,(%esp)
 8071ffb:	e8 50 fb ff ff       	call   8071b50 <_Unwind_Resume@plt>
 8072000:	83 c4 34             	add    $0x34,%esp
 8072003:	5b                   	pop    %ebx
 8072004:	5d                   	pop    %ebp
 8072005:	c3                   	ret    

08072006 <_Z12RunLogThreadRN3zmq9context_tER3LogR7XML_Log>:
 8072006:	55                   	push   %ebp
 8072007:	89 e5                	mov    %esp,%ebp
 8072009:	53                   	push   %ebx
 807200a:	83 ec 64             	sub    $0x64,%esp
 807200d:	8b 45 10             	mov    0x10(%ebp),%eax
 8072010:	89 04 24             	mov    %eax,(%esp)
 8072013:	e8 aa 0e 00 00       	call   8072ec2 <_ZN7XML_Log12get_zmqdequeEv>
 8072018:	89 45 f4             	mov    %eax,0xfffffff4(%ebp)
 807201b:	8d 45 c8             	lea    0xffffffc8(%ebp),%eax
 807201e:	8b 55 f4             	mov    0xfffffff4(%ebp),%edx
 8072021:	89 54 24 04          	mov    %edx,0x4(%esp)
 8072025:	89 04 24             	mov    %eax,(%esp)
 8072028:	e8 1b 29 00 00       	call   8074948 <_ZNSt5dequeI7XML_ZMQSaIS0_EE5beginEv>
 807202d:	83 ec 04             	sub    $0x4,%esp
 8072030:	e9 c2 00 00 00       	jmp    80720f7 <_Z12RunLogThreadRN3zmq9context_tER3LogR7XML_Log+0xf1>
 8072035:	8d 45 bc             	lea    0xffffffbc(%ebp),%eax
 8072038:	89 04 24             	mov    %eax,(%esp)
 807203b:	e8 c2 11 00 00       	call   8073202 <_ZN7ZMQItemC1Ev>
 8072040:	8d 45 c8             	lea    0xffffffc8(%ebp),%eax
 8072043:	89 04 24             	mov    %eax,(%esp)
 8072046:	e8 bf 29 00 00       	call   8074a0a <_ZNKSt15_Deque_iteratorI7XML_ZMQRS0_PS0_EdeEv>
 807204b:	89 04 24             	mov    %eax,(%esp)
 807204e:	e8 57 0c 00 00       	call   8072caa <_ZN7XML_ZMQ14get_zmqpatternEv>
 8072053:	89 45 bc             	mov    %eax,0xffffffbc(%ebp)
 8072056:	8d 45 c8             	lea    0xffffffc8(%ebp),%eax
 8072059:	89 04 24             	mov    %eax,(%esp)
 807205c:	e8 a9 29 00 00       	call   8074a0a <_ZNKSt15_Deque_iteratorI7XML_ZMQRS0_PS0_EdeEv>
 8072061:	89 04 24             	mov    %eax,(%esp)
 8072064:	e8 a5 0d 00 00       	call   8072e0e <_ZN7XML_ZMQ19get_zmqsocketactionEv>
 8072069:	89 44 24 04          	mov    %eax,0x4(%esp)
 807206d:	8d 45 bc             	lea    0xffffffbc(%ebp),%eax
 8072070:	83 c0 04             	add    $0x4,%eax
 8072073:	89 04 24             	mov    %eax,(%esp)
 8072076:	e8 35 f7 ff ff       	call   80717b0 <_ZNSsaSERKSs@plt>
 807207b:	8d 45 c8             	lea    0xffffffc8(%ebp),%eax
 807207e:	89 04 24             	mov    %eax,(%esp)
 8072081:	e8 84 29 00 00       	call   8074a0a <_ZNKSt15_Deque_iteratorI7XML_ZMQRS0_PS0_EdeEv>
 8072086:	89 04 24             	mov    %eax,(%esp)
 8072089:	e8 8c 0d 00 00       	call   8072e1a <_ZN7XML_ZMQ17get_zmqsocketaddrEv>
 807208e:	89 44 24 04          	mov    %eax,0x4(%esp)
 8072092:	8d 45 bc             	lea    0xffffffbc(%ebp),%eax
 8072095:	83 c0 08             	add    $0x8,%eax
 8072098:	89 04 24             	mov    %eax,(%esp)
 807209b:	e8 10 f7 ff ff       	call   80717b0 <_ZNSsaSERKSs@plt>
 80720a0:	8d 45 bc             	lea    0xffffffbc(%ebp),%eax
 80720a3:	89 44 24 04          	mov    %eax,0x4(%esp)
 80720a7:	8d 45 d8             	lea    0xffffffd8(%ebp),%eax
 80720aa:	89 04 24             	mov    %eax,(%esp)
 80720ad:	e8 50 12 00 00       	call   8073302 <_ZN7ZMQItemC1ERKS_>
 80720b2:	8b 45 0c             	mov    0xc(%ebp),%eax
 80720b5:	8d 55 d8             	lea    0xffffffd8(%ebp),%edx
 80720b8:	89 54 24 04          	mov    %edx,0x4(%esp)
 80720bc:	89 04 24             	mov    %eax,(%esp)
 80720bf:	e8 7e 14 00 00       	call   8073542 <_ZN10BaseThread10AddZMQItemE7ZMQItem>
 80720c4:	8d 45 d8             	lea    0xffffffd8(%ebp),%eax
 80720c7:	89 04 24             	mov    %eax,(%esp)
 80720ca:	e8 ed 11 00 00       	call   80732bc <_ZN7ZMQItemD1Ev>
 80720cf:	8d 45 bc             	lea    0xffffffbc(%ebp),%eax
 80720d2:	89 04 24             	mov    %eax,(%esp)
 80720d5:	e8 e2 11 00 00       	call   80732bc <_ZN7ZMQItemD1Ev>
 80720da:	8d 45 a8             	lea    0xffffffa8(%ebp),%eax
 80720dd:	c7 44 24 08 00 00 00 	movl   $0x0,0x8(%esp)
 80720e4:	00 
 80720e5:	8d 55 c8             	lea    0xffffffc8(%ebp),%edx
 80720e8:	89 54 24 04          	mov    %edx,0x4(%esp)
 80720ec:	89 04 24             	mov    %eax,(%esp)
 80720ef:	e8 ea 28 00 00       	call   80749de <_ZNSt15_Deque_iteratorI7XML_ZMQRS0_PS0_EppEi>
 80720f4:	83 ec 04             	sub    $0x4,%esp
 80720f7:	8d 45 e4             	lea    0xffffffe4(%ebp),%eax
 80720fa:	8b 55 f4             	mov    0xfffffff4(%ebp),%edx
 80720fd:	89 54 24 04          	mov    %edx,0x4(%esp)
 8072101:	89 04 24             	mov    %eax,(%esp)
 8072104:	e8 95 28 00 00       	call   807499e <_ZNSt5dequeI7XML_ZMQSaIS0_EE3endEv>
 8072109:	83 ec 04             	sub    $0x4,%esp
 807210c:	8d 45 e4             	lea    0xffffffe4(%ebp),%eax
 807210f:	89 44 24 04          	mov    %eax,0x4(%esp)
 8072113:	8d 45 c8             	lea    0xffffffc8(%ebp),%eax
 8072116:	89 04 24             	mov    %eax,(%esp)
 8072119:	e8 a2 28 00 00       	call   80749c0 <_ZStneI7XML_ZMQRS0_PS0_EbRKSt15_Deque_iteratorIT_T0_T1_ES9_>
 807211e:	84 c0                	test   %al,%al
 8072120:	0f 85 0f ff ff ff    	jne    8072035 <_Z12RunLogThreadRN3zmq9context_tER3LogR7XML_Log+0x2f>
 8072126:	8b 45 0c             	mov    0xc(%ebp),%eax
 8072129:	89 04 24             	mov    %eax,(%esp)
 807212c:	e8 d5 13 00 00       	call   8073506 <_ZN10BaseThread5StartEv>
 8072131:	eb 2c                	jmp    807215f <_Z12RunLogThreadRN3zmq9context_tER3LogR7XML_Log+0x159>
 8072133:	89 c3                	mov    %eax,%ebx
 8072135:	8d 45 d8             	lea    0xffffffd8(%ebp),%eax
 8072138:	89 04 24             	mov    %eax,(%esp)
 807213b:	e8 7c 11 00 00       	call   80732bc <_ZN7ZMQItemD1Ev>
 8072140:	eb 02                	jmp    8072144 <_Z12RunLogThreadRN3zmq9context_tER3LogR7XML_Log+0x13e>
 8072142:	89 c3                	mov    %eax,%ebx
 8072144:	8d 45 bc             	lea    0xffffffbc(%ebp),%eax
 8072147:	89 04 24             	mov    %eax,(%esp)
 807214a:	e8 6d 11 00 00       	call   80732bc <_ZN7ZMQItemD1Ev>
 807214f:	89 d8                	mov    %ebx,%eax
 8072151:	eb 04                	jmp    8072157 <_Z12RunLogThreadRN3zmq9context_tER3LogR7XML_Log+0x151>
 8072153:	eb 02                	jmp    8072157 <_Z12RunLogThreadRN3zmq9context_tER3LogR7XML_Log+0x151>
 8072155:	eb 00                	jmp    8072157 <_Z12RunLogThreadRN3zmq9context_tER3LogR7XML_Log+0x151>
 8072157:	89 04 24             	mov    %eax,(%esp)
 807215a:	e8 f1 f9 ff ff       	call   8071b50 <_Unwind_Resume@plt>
 807215f:	8b 5d fc             	mov    0xfffffffc(%ebp),%ebx
 8072162:	c9                   	leave  
 8072163:	c3                   	ret    

08072164 <_Z25TransformDidTemplateToLuaR17XML_ListeningItem>:
 8072164:	55                   	push   %ebp
 8072165:	89 e5                	mov    %esp,%ebp
 8072167:	53                   	push   %ebx
 8072168:	83 ec 24             	sub    $0x24,%esp
 807216b:	8d 45 ec             	lea    0xffffffec(%ebp),%eax
 807216e:	89 04 24             	mov    %eax,(%esp)
 8072171:	e8 4c 1c 00 00       	call   8073dc2 <_ZN22DIDTemplateToLuaStructC1Ev>
 8072176:	8b 45 08             	mov    0x8(%ebp),%eax
 8072179:	89 44 24 04          	mov    %eax,0x4(%esp)
 807217d:	8d 45 ec             	lea    0xffffffec(%ebp),%eax
 8072180:	89 04 24             	mov    %eax,(%esp)
 8072183:	e8 02 a1 01 00       	call   808c28a <_ZN22DIDTemplateToLuaStruct9TransformER17XML_ListeningItem>
 8072188:	8d 45 ec             	lea    0xffffffec(%ebp),%eax
 807218b:	89 04 24             	mov    %eax,(%esp)
 807218e:	e8 43 1c 00 00       	call   8073dd6 <_ZN22DIDTemplateToLuaStructD1Ev>
 8072193:	eb 19                	jmp    80721ae <_Z25TransformDidTemplateToLuaR17XML_ListeningItem+0x4a>
 8072195:	89 c3                	mov    %eax,%ebx
 8072197:	8d 45 ec             	lea    0xffffffec(%ebp),%eax
 807219a:	89 04 24             	mov    %eax,(%esp)
 807219d:	e8 34 1c 00 00       	call   8073dd6 <_ZN22DIDTemplateToLuaStructD1Ev>
 80721a2:	89 d8                	mov    %ebx,%eax
 80721a4:	eb 00                	jmp    80721a6 <_Z25TransformDidTemplateToLuaR17XML_ListeningItem+0x42>
 80721a6:	89 04 24             	mov    %eax,(%esp)
 80721a9:	e8 a2 f9 ff ff       	call   8071b50 <_Unwind_Resume@plt>
 80721ae:	83 c4 24             	add    $0x24,%esp
 80721b1:	5b                   	pop    %ebx
 80721b2:	5d                   	pop    %ebp
 80721b3:	c3                   	ret    

080721b4 <_Z16RunCaptureThreadRN3zmq9context_tEiRSt5dequeI16CaptureNetPacketSaIS3_EERS2_I15HandleNetPacketSaIS7_EERS2_I17XML_ListeningItemSaISB_EE>:
 80721b4:	55                   	push   %ebp
 80721b5:	89 e5                	mov    %esp,%ebp
 80721b7:	53                   	push   %ebx
 80721b8:	81 ec 14 03 00 00    	sub    $0x314,%esp
 80721be:	c7 45 f4 00 00 00 00 	movl   $0x0,0xfffffff4(%ebp)
 80721c5:	8d 85 68 ff ff ff    	lea    0xffffff68(%ebp),%eax
 80721cb:	8b 55 18             	mov    0x18(%ebp),%edx
 80721ce:	89 54 24 04          	mov    %edx,0x4(%esp)
 80721d2:	89 04 24             	mov    %eax,(%esp)
 80721d5:	e8 3a 28 00 00       	call   8074a14 <_ZNSt5dequeI17XML_ListeningItemSaIS0_EE5beginEv>
 80721da:	83 ec 04             	sub    $0x4,%esp
 80721dd:	e9 66 04 00 00       	jmp    8072648 <_Z16RunCaptureThreadRN3zmq9context_tEiRSt5dequeI16CaptureNetPacketSaIS3_EERS2_I15HandleNetPacketSaIS7_EERS2_I17XML_ListeningItemSaISB_EE+0x494>
 80721e2:	8d 85 68 ff ff ff    	lea    0xffffff68(%ebp),%eax
 80721e8:	89 04 24             	mov    %eax,(%esp)
 80721eb:	e8 e6 28 00 00       	call   8074ad6 <_ZNKSt15_Deque_iteratorI17XML_ListeningItemRS0_PS0_EdeEv>
 80721f0:	89 04 24             	mov    %eax,(%esp)
 80721f3:	e8 6c ff ff ff       	call   8072164 <_Z25TransformDidTemplateToLuaR17XML_ListeningItem>
 80721f8:	8d 85 68 ff ff ff    	lea    0xffffff68(%ebp),%eax
 80721fe:	89 04 24             	mov    %eax,(%esp)
 8072201:	e8 da 28 00 00       	call   8074ae0 <_ZNKSt15_Deque_iteratorI17XML_ListeningItemRS0_PS0_EptEv>
 8072206:	89 04 24             	mov    %eax,(%esp)
 8072209:	e8 06 0e 00 00       	call   8073014 <_ZN17XML_ListeningItem10get_filterEv>
 807220e:	89 44 24 04          	mov    %eax,0x4(%esp)
 8072212:	8d 85 78 ff ff ff    	lea    0xffffff78(%ebp),%eax
 8072218:	89 04 24             	mov    %eax,(%esp)
 807221b:	e8 40 f4 ff ff       	call   8071660 <_ZNSsC1ERKSs@plt>
 8072220:	8b 45 08             	mov    0x8(%ebp),%eax
 8072223:	89 44 24 0c          	mov    %eax,0xc(%esp)
 8072227:	8d 85 78 ff ff ff    	lea    0xffffff78(%ebp),%eax
 807222d:	89 44 24 08          	mov    %eax,0x8(%esp)
 8072231:	8b 45 0c             	mov    0xc(%ebp),%eax
 8072234:	89 44 24 04          	mov    %eax,0x4(%esp)
 8072238:	8d 85 08 fd ff ff    	lea    0xfffffd08(%ebp),%eax
 807223e:	89 04 24             	mov    %eax,(%esp)
 8072241:	e8 26 14 00 00       	call   807366c <_ZN16CaptureNetPacketC1EiSsPN3zmq9context_tE>
 8072246:	8d 85 78 ff ff ff    	lea    0xffffff78(%ebp),%eax
 807224c:	89 04 24             	mov    %eax,(%esp)
 807224f:	e8 0c f8 ff ff       	call   8071a60 <_ZNSsD1Ev@plt>
 8072254:	8d 85 68 ff ff ff    	lea    0xffffff68(%ebp),%eax
 807225a:	89 04 24             	mov    %eax,(%esp)
 807225d:	e8 74 28 00 00       	call   8074ad6 <_ZNKSt15_Deque_iteratorI17XML_ListeningItemRS0_PS0_EdeEv>
 8072262:	89 44 24 08          	mov    %eax,0x8(%esp)
 8072266:	8b 45 08             	mov    0x8(%ebp),%eax
 8072269:	89 44 24 04          	mov    %eax,0x4(%esp)
 807226d:	8d 85 30 fd ff ff    	lea    0xfffffd30(%ebp),%eax
 8072273:	89 04 24             	mov    %eax,(%esp)
 8072276:	e8 77 17 00 00       	call   80739f2 <_ZN15HandleNetPacketC1EPN3zmq9context_tER17XML_ListeningItem>
 807227b:	8d 85 68 ff ff ff    	lea    0xffffff68(%ebp),%eax
 8072281:	89 04 24             	mov    %eax,(%esp)
 8072284:	e8 4d 28 00 00       	call   8074ad6 <_ZNKSt15_Deque_iteratorI17XML_ListeningItemRS0_PS0_EdeEv>
 8072289:	89 04 24             	mov    %eax,(%esp)
 807228c:	e8 8f 0d 00 00       	call   8073020 <_ZN17XML_ListeningItem22get_capture_net_packetEv>
 8072291:	89 04 24             	mov    %eax,(%esp)
 8072294:	e8 b5 0b 00 00       	call   8072e4e <_ZN20XML_CaptureNetPacket12get_zmqdequeEv>
 8072299:	89 45 f0             	mov    %eax,0xfffffff0(%ebp)
 807229c:	8d 85 58 ff ff ff    	lea    0xffffff58(%ebp),%eax
 80722a2:	8b 55 f0             	mov    0xfffffff0(%ebp),%edx
 80722a5:	89 54 24 04          	mov    %edx,0x4(%esp)
 80722a9:	89 04 24             	mov    %eax,(%esp)
 80722ac:	e8 97 26 00 00       	call   8074948 <_ZNSt5dequeI7XML_ZMQSaIS0_EE5beginEv>
 80722b1:	83 ec 04             	sub    $0x4,%esp
 80722b4:	e9 54 01 00 00       	jmp    807240d <_Z16RunCaptureThreadRN3zmq9context_tEiRSt5dequeI16CaptureNetPacketSaIS3_EERS2_I15HandleNetPacketSaIS7_EERS2_I17XML_ListeningItemSaISB_EE+0x259>
 80722b9:	8d 85 4c ff ff ff    	lea    0xffffff4c(%ebp),%eax
 80722bf:	89 04 24             	mov    %eax,(%esp)
 80722c2:	e8 3b 0f 00 00       	call   8073202 <_ZN7ZMQItemC1Ev>
 80722c7:	8d 85 58 ff ff ff    	lea    0xffffff58(%ebp),%eax
 80722cd:	89 04 24             	mov    %eax,(%esp)
 80722d0:	e8 35 27 00 00       	call   8074a0a <_ZNKSt15_Deque_iteratorI7XML_ZMQRS0_PS0_EdeEv>
 80722d5:	89 04 24             	mov    %eax,(%esp)
 80722d8:	e8 cd 09 00 00       	call   8072caa <_ZN7XML_ZMQ14get_zmqpatternEv>
 80722dd:	89 85 4c ff ff ff    	mov    %eax,0xffffff4c(%ebp)
 80722e3:	8d 85 58 ff ff ff    	lea    0xffffff58(%ebp),%eax
 80722e9:	89 04 24             	mov    %eax,(%esp)
 80722ec:	e8 19 27 00 00       	call   8074a0a <_ZNKSt15_Deque_iteratorI7XML_ZMQRS0_PS0_EdeEv>
 80722f1:	89 04 24             	mov    %eax,(%esp)
 80722f4:	e8 15 0b 00 00       	call   8072e0e <_ZN7XML_ZMQ19get_zmqsocketactionEv>
 80722f9:	89 44 24 04          	mov    %eax,0x4(%esp)
 80722fd:	8d 85 4c ff ff ff    	lea    0xffffff4c(%ebp),%eax
 8072303:	83 c0 04             	add    $0x4,%eax
 8072306:	89 04 24             	mov    %eax,(%esp)
 8072309:	e8 a2 f4 ff ff       	call   80717b0 <_ZNSsaSERKSs@plt>
 807230e:	c7 44 24 08 10 00 00 	movl   $0x10,0x8(%esp)
 8072315:	00 
 8072316:	c7 44 24 04 00 00 00 	movl   $0x0,0x4(%esp)
 807231d:	00 
 807231e:	8d 85 3c ff ff ff    	lea    0xffffff3c(%ebp),%eax
 8072324:	89 04 24             	mov    %eax,(%esp)
 8072327:	e8 64 f7 ff ff       	call   8071a90 <memset@plt>
 807232c:	8b 45 f4             	mov    0xfffffff4(%ebp),%eax
 807232f:	89 44 24 08          	mov    %eax,0x8(%esp)
 8072333:	c7 44 24 04 88 60 09 	movl   $0x8096088,0x4(%esp)
 807233a:	08 
 807233b:	8d 85 3c ff ff ff    	lea    0xffffff3c(%ebp),%eax
 8072341:	89 04 24             	mov    %eax,(%esp)
 8072344:	e8 77 f3 ff ff       	call   80716c0 <sprintf@plt>
 8072349:	8d 85 58 ff ff ff    	lea    0xffffff58(%ebp),%eax
 807234f:	89 04 24             	mov    %eax,(%esp)
 8072352:	e8 b3 26 00 00       	call   8074a0a <_ZNKSt15_Deque_iteratorI7XML_ZMQRS0_PS0_EdeEv>
 8072357:	89 04 24             	mov    %eax,(%esp)
 807235a:	e8 bb 0a 00 00       	call   8072e1a <_ZN7XML_ZMQ17get_zmqsocketaddrEv>
 807235f:	8d 95 7c ff ff ff    	lea    0xffffff7c(%ebp),%edx
 8072365:	8d 8d 3c ff ff ff    	lea    0xffffff3c(%ebp),%ecx
 807236b:	89 4c 24 08          	mov    %ecx,0x8(%esp)
 807236f:	89 44 24 04          	mov    %eax,0x4(%esp)
 8072373:	89 14 24             	mov    %edx,(%esp)
 8072376:	e8 6f 27 00 00       	call   8074aea <_ZStplIcSt11char_traitsIcESaIcEESbIT_T0_T1_ERKS6_PKS3_>
 807237b:	83 ec 04             	sub    $0x4,%esp
 807237e:	8d 85 7c ff ff ff    	lea    0xffffff7c(%ebp),%eax
 8072384:	89 44 24 04          	mov    %eax,0x4(%esp)
 8072388:	8d 85 4c ff ff ff    	lea    0xffffff4c(%ebp),%eax
 807238e:	83 c0 08             	add    $0x8,%eax
 8072391:	89 04 24             	mov    %eax,(%esp)
 8072394:	e8 17 f4 ff ff       	call   80717b0 <_ZNSsaSERKSs@plt>
 8072399:	8d 85 7c ff ff ff    	lea    0xffffff7c(%ebp),%eax
 807239f:	89 04 24             	mov    %eax,(%esp)
 80723a2:	e8 b9 f6 ff ff       	call   8071a60 <_ZNSsD1Ev@plt>
 80723a7:	8d 85 4c ff ff ff    	lea    0xffffff4c(%ebp),%eax
 80723ad:	89 44 24 04          	mov    %eax,0x4(%esp)
 80723b1:	8d 45 80             	lea    0xffffff80(%ebp),%eax
 80723b4:	89 04 24             	mov    %eax,(%esp)
 80723b7:	e8 46 0f 00 00       	call   8073302 <_ZN7ZMQItemC1ERKS_>
 80723bc:	8d 45 80             	lea    0xffffff80(%ebp),%eax
 80723bf:	89 44 24 04          	mov    %eax,0x4(%esp)
 80723c3:	8d 85 08 fd ff ff    	lea    0xfffffd08(%ebp),%eax
 80723c9:	89 04 24             	mov    %eax,(%esp)
 80723cc:	e8 71 11 00 00       	call   8073542 <_ZN10BaseThread10AddZMQItemE7ZMQItem>
 80723d1:	8d 45 80             	lea    0xffffff80(%ebp),%eax
 80723d4:	89 04 24             	mov    %eax,(%esp)
 80723d7:	e8 e0 0e 00 00       	call   80732bc <_ZN7ZMQItemD1Ev>
 80723dc:	8d 85 4c ff ff ff    	lea    0xffffff4c(%ebp),%eax
 80723e2:	89 04 24             	mov    %eax,(%esp)
 80723e5:	e8 d2 0e 00 00       	call   80732bc <_ZN7ZMQItemD1Ev>
 80723ea:	8d 85 f8 fc ff ff    	lea    0xfffffcf8(%ebp),%eax
 80723f0:	c7 44 24 08 00 00 00 	movl   $0x0,0x8(%esp)
 80723f7:	00 
 80723f8:	8d 95 58 ff ff ff    	lea    0xffffff58(%ebp),%edx
 80723fe:	89 54 24 04          	mov    %edx,0x4(%esp)
 8072402:	89 04 24             	mov    %eax,(%esp)
 8072405:	e8 d4 25 00 00       	call   80749de <_ZNSt15_Deque_iteratorI7XML_ZMQRS0_PS0_EppEi>
 807240a:	83 ec 04             	sub    $0x4,%esp
 807240d:	8d 45 8c             	lea    0xffffff8c(%ebp),%eax
 8072410:	8b 55 f0             	mov    0xfffffff0(%ebp),%edx
 8072413:	89 54 24 04          	mov    %edx,0x4(%esp)
 8072417:	89 04 24             	mov    %eax,(%esp)
 807241a:	e8 7f 25 00 00       	call   807499e <_ZNSt5dequeI7XML_ZMQSaIS0_EE3endEv>
 807241f:	83 ec 04             	sub    $0x4,%esp
 8072422:	8d 45 8c             	lea    0xffffff8c(%ebp),%eax
 8072425:	89 44 24 04          	mov    %eax,0x4(%esp)
 8072429:	8d 85 58 ff ff ff    	lea    0xffffff58(%ebp),%eax
 807242f:	89 04 24             	mov    %eax,(%esp)
 8072432:	e8 89 25 00 00       	call   80749c0 <_ZStneI7XML_ZMQRS0_PS0_EbRKSt15_Deque_iteratorIT_T0_T1_ES9_>
 8072437:	84 c0                	test   %al,%al
 8072439:	0f 85 7a fe ff ff    	jne    80722b9 <_Z16RunCaptureThreadRN3zmq9context_tEiRSt5dequeI16CaptureNetPacketSaIS3_EERS2_I15HandleNetPacketSaIS7_EERS2_I17XML_ListeningItemSaISB_EE+0x105>
 807243f:	8d 85 68 ff ff ff    	lea    0xffffff68(%ebp),%eax
 8072445:	89 04 24             	mov    %eax,(%esp)
 8072448:	e8 89 26 00 00       	call   8074ad6 <_ZNKSt15_Deque_iteratorI17XML_ListeningItemRS0_PS0_EdeEv>
 807244d:	89 04 24             	mov    %eax,(%esp)
 8072450:	e8 d7 0b 00 00       	call   807302c <_ZN17XML_ListeningItem21get_handle_net_packetEv>
 8072455:	89 04 24             	mov    %eax,(%esp)
 8072458:	e8 0d 0a 00 00       	call   8072e6a <_ZN19XML_HandleNetPacket12get_zmqdequeEv>
 807245d:	89 45 ec             	mov    %eax,0xffffffec(%ebp)
 8072460:	8d 85 2c ff ff ff    	lea    0xffffff2c(%ebp),%eax
 8072466:	8b 55 ec             	mov    0xffffffec(%ebp),%edx
 8072469:	89 54 24 04          	mov    %edx,0x4(%esp)
 807246d:	89 04 24             	mov    %eax,(%esp)
 8072470:	e8 d3 24 00 00       	call   8074948 <_ZNSt5dequeI7XML_ZMQSaIS0_EE5beginEv>
 8072475:	83 ec 04             	sub    $0x4,%esp
 8072478:	90                   	nop    
 8072479:	8d 45 ac             	lea    0xffffffac(%ebp),%eax
 807247c:	8b 55 ec             	mov    0xffffffec(%ebp),%edx
 807247f:	89 54 24 04          	mov    %edx,0x4(%esp)
 8072483:	89 04 24             	mov    %eax,(%esp)
 8072486:	e8 13 25 00 00       	call   807499e <_ZNSt5dequeI7XML_ZMQSaIS0_EE3endEv>
 807248b:	83 ec 04             	sub    $0x4,%esp
 807248e:	8d 45 ac             	lea    0xffffffac(%ebp),%eax
 8072491:	89 44 24 04          	mov    %eax,0x4(%esp)
 8072495:	8d 85 2c ff ff ff    	lea    0xffffff2c(%ebp),%eax
 807249b:	89 04 24             	mov    %eax,(%esp)
 807249e:	e8 1d 25 00 00       	call   80749c0 <_ZStneI7XML_ZMQRS0_PS0_EbRKSt15_Deque_iteratorIT_T0_T1_ES9_>
 80724a3:	e9 2b 01 00 00       	jmp    80725d3 <_Z16RunCaptureThreadRN3zmq9context_tEiRSt5dequeI16CaptureNetPacketSaIS3_EERS2_I15HandleNetPacketSaIS7_EERS2_I17XML_ListeningItemSaISB_EE+0x41f>
 80724a8:	8d 85 20 ff ff ff    	lea    0xffffff20(%ebp),%eax
 80724ae:	89 04 24             	mov    %eax,(%esp)
 80724b1:	e8 4c 0d 00 00       	call   8073202 <_ZN7ZMQItemC1Ev>
 80724b6:	8d 85 2c ff ff ff    	lea    0xffffff2c(%ebp),%eax
 80724bc:	89 04 24             	mov    %eax,(%esp)
 80724bf:	e8 46 25 00 00       	call   8074a0a <_ZNKSt15_Deque_iteratorI7XML_ZMQRS0_PS0_EdeEv>
 80724c4:	89 04 24             	mov    %eax,(%esp)
 80724c7:	e8 de 07 00 00       	call   8072caa <_ZN7XML_ZMQ14get_zmqpatternEv>
 80724cc:	89 85 20 ff ff ff    	mov    %eax,0xffffff20(%ebp)
 80724d2:	8d 85 2c ff ff ff    	lea    0xffffff2c(%ebp),%eax
 80724d8:	89 04 24             	mov    %eax,(%esp)
 80724db:	e8 5a 26 00 00       	call   8074b3a <_ZNKSt15_Deque_iteratorI7XML_ZMQRS0_PS0_EptEv>
 80724e0:	89 04 24             	mov    %eax,(%esp)
 80724e3:	e8 26 09 00 00       	call   8072e0e <_ZN7XML_ZMQ19get_zmqsocketactionEv>
 80724e8:	89 44 24 04          	mov    %eax,0x4(%esp)
 80724ec:	8d 85 20 ff ff ff    	lea    0xffffff20(%ebp),%eax
 80724f2:	83 c0 04             	add    $0x4,%eax
 80724f5:	89 04 24             	mov    %eax,(%esp)
 80724f8:	e8 b3 f2 ff ff       	call   80717b0 <_ZNSsaSERKSs@plt>
 80724fd:	c7 44 24 08 10 00 00 	movl   $0x10,0x8(%esp)
 8072504:	00 
 8072505:	c7 44 24 04 00 00 00 	movl   $0x0,0x4(%esp)
 807250c:	00 
 807250d:	8d 85 10 ff ff ff    	lea    0xffffff10(%ebp),%eax
 8072513:	89 04 24             	mov    %eax,(%esp)
 8072516:	e8 75 f5 ff ff       	call   8071a90 <memset@plt>
 807251b:	8b 45 f4             	mov    0xfffffff4(%ebp),%eax
 807251e:	89 44 24 08          	mov    %eax,0x8(%esp)
 8072522:	c7 44 24 04 88 60 09 	movl   $0x8096088,0x4(%esp)
 8072529:	08 
 807252a:	8d 85 10 ff ff ff    	lea    0xffffff10(%ebp),%eax
 8072530:	89 04 24             	mov    %eax,(%esp)
 8072533:	e8 88 f1 ff ff       	call   80716c0 <sprintf@plt>
 8072538:	8d 85 2c ff ff ff    	lea    0xffffff2c(%ebp),%eax
 807253e:	89 04 24             	mov    %eax,(%esp)
 8072541:	e8 f4 25 00 00       	call   8074b3a <_ZNKSt15_Deque_iteratorI7XML_ZMQRS0_PS0_EptEv>
 8072546:	89 04 24             	mov    %eax,(%esp)
 8072549:	e8 cc 08 00 00       	call   8072e1a <_ZN7XML_ZMQ17get_zmqsocketaddrEv>
 807254e:	8d 55 9c             	lea    0xffffff9c(%ebp),%edx
 8072551:	8d 8d 10 ff ff ff    	lea    0xffffff10(%ebp),%ecx
 8072557:	89 4c 24 08          	mov    %ecx,0x8(%esp)
 807255b:	89 44 24 04          	mov    %eax,0x4(%esp)
 807255f:	89 14 24             	mov    %edx,(%esp)
 8072562:	e8 83 25 00 00       	call   8074aea <_ZStplIcSt11char_traitsIcESaIcEESbIT_T0_T1_ERKS6_PKS3_>
 8072567:	83 ec 04             	sub    $0x4,%esp
 807256a:	8d 45 9c             	lea    0xffffff9c(%ebp),%eax
 807256d:	89 44 24 04          	mov    %eax,0x4(%esp)
 8072571:	8d 85 20 ff ff ff    	lea    0xffffff20(%ebp),%eax
 8072577:	83 c0 08             	add    $0x8,%eax
 807257a:	89 04 24             	mov    %eax,(%esp)
 807257d:	e8 2e f2 ff ff       	call   80717b0 <_ZNSsaSERKSs@plt>
 8072582:	8d 45 9c             	lea    0xffffff9c(%ebp),%eax
 8072585:	89 04 24             	mov    %eax,(%esp)
 8072588:	e8 d3 f4 ff ff       	call   8071a60 <_ZNSsD1Ev@plt>
 807258d:	8d 85 20 ff ff ff    	lea    0xffffff20(%ebp),%eax
 8072593:	89 44 24 04          	mov    %eax,0x4(%esp)
 8072597:	8d 45 a0             	lea    0xffffffa0(%ebp),%eax
 807259a:	89 04 24             	mov    %eax,(%esp)
 807259d:	e8 60 0d 00 00       	call   8073302 <_ZN7ZMQItemC1ERKS_>
 80725a2:	8d 45 a0             	lea    0xffffffa0(%ebp),%eax
 80725a5:	89 44 24 04          	mov    %eax,0x4(%esp)
 80725a9:	8d 85 30 fd ff ff    	lea    0xfffffd30(%ebp),%eax
 80725af:	89 04 24             	mov    %eax,(%esp)
 80725b2:	e8 8b 0f 00 00       	call   8073542 <_ZN10BaseThread10AddZMQItemE7ZMQItem>
 80725b7:	8d 45 a0             	lea    0xffffffa0(%ebp),%eax
 80725ba:	89 04 24             	mov    %eax,(%esp)
 80725bd:	e8 fa 0c 00 00       	call   80732bc <_ZN7ZMQItemD1Ev>
 80725c2:	90                   	nop    
 80725c3:	8d 85 20 ff ff ff    	lea    0xffffff20(%ebp),%eax
 80725c9:	89 04 24             	mov    %eax,(%esp)
 80725cc:	e8 eb 0c 00 00       	call   80732bc <_ZN7ZMQItemD1Ev>
 80725d1:	eb 08                	jmp    80725db <_Z16RunCaptureThreadRN3zmq9context_tEiRSt5dequeI16CaptureNetPacketSaIS3_EERS2_I15HandleNetPacketSaIS7_EERS2_I17XML_ListeningItemSaISB_EE+0x427>
 80725d3:	84 c0                	test   %al,%al
 80725d5:	0f 85 cd fe ff ff    	jne    80724a8 <_Z16RunCaptureThreadRN3zmq9context_tEiRSt5dequeI16CaptureNetPacketSaIS3_EERS2_I15HandleNetPacketSaIS7_EERS2_I17XML_ListeningItemSaISB_EE+0x2f4>
 80725db:	83 45 f4 01          	addl   $0x1,0xfffffff4(%ebp)
 80725df:	8d 85 08 fd ff ff    	lea    0xfffffd08(%ebp),%eax
 80725e5:	89 44 24 04          	mov    %eax,0x4(%esp)
 80725e9:	8b 45 10             	mov    0x10(%ebp),%eax
 80725ec:	89 04 24             	mov    %eax,(%esp)
 80725ef:	e8 50 25 00 00       	call   8074b44 <_ZNSt5dequeI16CaptureNetPacketSaIS0_EE9push_backERKS0_>
 80725f4:	8d 85 30 fd ff ff    	lea    0xfffffd30(%ebp),%eax
 80725fa:	89 44 24 04          	mov    %eax,0x4(%esp)
 80725fe:	8b 45 14             	mov    0x14(%ebp),%eax
 8072601:	89 04 24             	mov    %eax,(%esp)
 8072604:	e8 95 25 00 00       	call   8074b9e <_ZNSt5dequeI15HandleNetPacketSaIS0_EE9push_backERKS0_>
 8072609:	8d 85 30 fd ff ff    	lea    0xfffffd30(%ebp),%eax
 807260f:	89 04 24             	mov    %eax,(%esp)
 8072612:	e8 fd 14 00 00       	call   8073b14 <_ZN15HandleNetPacketD1Ev>
 8072617:	8d 85 08 fd ff ff    	lea    0xfffffd08(%ebp),%eax
 807261d:	89 04 24             	mov    %eax,(%esp)
 8072620:	e8 d3 10 00 00       	call   80736f8 <_ZN16CaptureNetPacketD1Ev>
 8072625:	8d 85 f8 fc ff ff    	lea    0xfffffcf8(%ebp),%eax
 807262b:	c7 44 24 08 00 00 00 	movl   $0x0,0x8(%esp)
 8072632:	00 
 8072633:	8d 95 68 ff ff ff    	lea    0xffffff68(%ebp),%edx
 8072639:	89 54 24 04          	mov    %edx,0x4(%esp)
 807263d:	89 04 24             	mov    %eax,(%esp)
 8072640:	e8 65 24 00 00       	call   8074aaa <_ZNSt15_Deque_iteratorI17XML_ListeningItemRS0_PS0_EppEi>
 8072645:	83 ec 04             	sub    $0x4,%esp
 8072648:	8d 45 bc             	lea    0xffffffbc(%ebp),%eax
 807264b:	8b 55 18             	mov    0x18(%ebp),%edx
 807264e:	89 54 24 04          	mov    %edx,0x4(%esp)
 8072652:	89 04 24             	mov    %eax,(%esp)
 8072655:	e8 10 24 00 00       	call   8074a6a <_ZNSt5dequeI17XML_ListeningItemSaIS0_EE3endEv>
 807265a:	83 ec 04             	sub    $0x4,%esp
 807265d:	8d 45 bc             	lea    0xffffffbc(%ebp),%eax
 8072660:	89 44 24 04          	mov    %eax,0x4(%esp)
 8072664:	8d 85 68 ff ff ff    	lea    0xffffff68(%ebp),%eax
 807266a:	89 04 24             	mov    %eax,(%esp)
 807266d:	e8 1a 24 00 00       	call   8074a8c <_ZStneI17XML_ListeningItemRS0_PS0_EbRKSt15_Deque_iteratorIT_T0_T1_ES9_>
 8072672:	84 c0                	test   %al,%al
 8072674:	0f 85 68 fb ff ff    	jne    80721e2 <_Z16RunCaptureThreadRN3zmq9context_tEiRSt5dequeI16CaptureNetPacketSaIS3_EERS2_I15HandleNetPacketSaIS7_EERS2_I17XML_ListeningItemSaISB_EE+0x2e>
 807267a:	8d 85 00 ff ff ff    	lea    0xffffff00(%ebp),%eax
 8072680:	8b 55 10             	mov    0x10(%ebp),%edx
 8072683:	89 54 24 04          	mov    %edx,0x4(%esp)
 8072687:	89 04 24             	mov    %eax,(%esp)
 807268a:	e8 6f 25 00 00       	call   8074bfe <_ZNSt5dequeI16CaptureNetPacketSaIS0_EE5beginEv>
 807268f:	83 ec 04             	sub    $0x4,%esp
 8072692:	eb 4f                	jmp    80726e3 <_Z16RunCaptureThreadRN3zmq9context_tEiRSt5dequeI16CaptureNetPacketSaIS3_EERS2_I15HandleNetPacketSaIS7_EERS2_I17XML_ListeningItemSaISB_EE+0x52f>
 8072694:	8d 85 00 ff ff ff    	lea    0xffffff00(%ebp),%eax
 807269a:	89 04 24             	mov    %eax,(%esp)
 807269d:	e8 1e 26 00 00       	call   8074cc0 <_ZNKSt15_Deque_iteratorI16CaptureNetPacketRS0_PS0_EptEv>
 80726a2:	89 04 24             	mov    %eax,(%esp)
 80726a5:	e8 34 11 01 00       	call   80837de <_ZN16CaptureNetPacket4InitEv>
 80726aa:	8d 85 00 ff ff ff    	lea    0xffffff00(%ebp),%eax
 80726b0:	89 04 24             	mov    %eax,(%esp)
 80726b3:	e8 08 26 00 00       	call   8074cc0 <_ZNKSt15_Deque_iteratorI16CaptureNetPacketRS0_PS0_EptEv>
 80726b8:	89 04 24             	mov    %eax,(%esp)
 80726bb:	e8 46 0e 00 00       	call   8073506 <_ZN10BaseThread5StartEv>
 80726c0:	8d 85 f8 fc ff ff    	lea    0xfffffcf8(%ebp),%eax
 80726c6:	c7 44 24 08 00 00 00 	movl   $0x0,0x8(%esp)
 80726cd:	00 
 80726ce:	8d 95 00 ff ff ff    	lea    0xffffff00(%ebp),%edx
 80726d4:	89 54 24 04          	mov    %edx,0x4(%esp)
 80726d8:	89 04 24             	mov    %eax,(%esp)
 80726db:	e8 b4 25 00 00       	call   8074c94 <_ZNSt15_Deque_iteratorI16CaptureNetPacketRS0_PS0_EppEi>
 80726e0:	83 ec 04             	sub    $0x4,%esp
 80726e3:	8d 45 cc             	lea    0xffffffcc(%ebp),%eax
 80726e6:	8b 55 10             	mov    0x10(%ebp),%edx
 80726e9:	89 54 24 04          	mov    %edx,0x4(%esp)
 80726ed:	89 04 24             	mov    %eax,(%esp)
 80726f0:	e8 5f 25 00 00       	call   8074c54 <_ZNSt5dequeI16CaptureNetPacketSaIS0_EE3endEv>
 80726f5:	83 ec 04             	sub    $0x4,%esp
 80726f8:	8d 45 cc             	lea    0xffffffcc(%ebp),%eax
 80726fb:	89 44 24 04          	mov    %eax,0x4(%esp)
 80726ff:	8d 85 00 ff ff ff    	lea    0xffffff00(%ebp),%eax
 8072705:	89 04 24             	mov    %eax,(%esp)
 8072708:	e8 69 25 00 00       	call   8074c76 <_ZStneI16CaptureNetPacketRS0_PS0_EbRKSt15_Deque_iteratorIT_T0_T1_ES9_>
 807270d:	84 c0                	test   %al,%al
 807270f:	75 83                	jne    8072694 <_Z16RunCaptureThreadRN3zmq9context_tEiRSt5dequeI16CaptureNetPacketSaIS3_EERS2_I15HandleNetPacketSaIS7_EERS2_I17XML_ListeningItemSaISB_EE+0x4e0>
 8072711:	8d 85 f0 fe ff ff    	lea    0xfffffef0(%ebp),%eax
 8072717:	8b 55 14             	mov    0x14(%ebp),%edx
 807271a:	89 54 24 04          	mov    %edx,0x4(%esp)
 807271e:	89 04 24             	mov    %eax,(%esp)
 8072721:	e8 a4 25 00 00       	call   8074cca <_ZNSt5dequeI15HandleNetPacketSaIS0_EE5beginEv>
 8072726:	83 ec 04             	sub    $0x4,%esp
 8072729:	eb 4f                	jmp    807277a <_Z16RunCaptureThreadRN3zmq9context_tEiRSt5dequeI16CaptureNetPacketSaIS3_EERS2_I15HandleNetPacketSaIS7_EERS2_I17XML_ListeningItemSaISB_EE+0x5c6>
 807272b:	8d 85 f0 fe ff ff    	lea    0xfffffef0(%ebp),%eax
 8072731:	89 04 24             	mov    %eax,(%esp)
 8072734:	e8 53 26 00 00       	call   8074d8c <_ZNKSt15_Deque_iteratorI15HandleNetPacketRS0_PS0_EptEv>
 8072739:	89 04 24             	mov    %eax,(%esp)
 807273c:	e8 8f 16 01 00       	call   8083dd0 <_ZN15HandleNetPacket4InitEv>
 8072741:	8d 85 f0 fe ff ff    	lea    0xfffffef0(%ebp),%eax
 8072747:	89 04 24             	mov    %eax,(%esp)
 807274a:	e8 3d 26 00 00       	call   8074d8c <_ZNKSt15_Deque_iteratorI15HandleNetPacketRS0_PS0_EptEv>
 807274f:	89 04 24             	mov    %eax,(%esp)
 8072752:	e8 af 0d 00 00       	call   8073506 <_ZN10BaseThread5StartEv>
 8072757:	8d 85 f8 fc ff ff    	lea    0xfffffcf8(%ebp),%eax
 807275d:	c7 44 24 08 00 00 00 	movl   $0x0,0x8(%esp)
 8072764:	00 
 8072765:	8d 95 f0 fe ff ff    	lea    0xfffffef0(%ebp),%edx
 807276b:	89 54 24 04          	mov    %edx,0x4(%esp)
 807276f:	89 04 24             	mov    %eax,(%esp)
 8072772:	e8 e9 25 00 00       	call   8074d60 <_ZNSt15_Deque_iteratorI15HandleNetPacketRS0_PS0_EppEi>
 8072777:	83 ec 04             	sub    $0x4,%esp
 807277a:	8d 45 dc             	lea    0xffffffdc(%ebp),%eax
 807277d:	8b 55 14             	mov    0x14(%ebp),%edx
 8072780:	89 54 24 04          	mov    %edx,0x4(%esp)
 8072784:	89 04 24             	mov    %eax,(%esp)
 8072787:	e8 94 25 00 00       	call   8074d20 <_ZNSt5dequeI15HandleNetPacketSaIS0_EE3endEv>
 807278c:	83 ec 04             	sub    $0x4,%esp
 807278f:	8d 45 dc             	lea    0xffffffdc(%ebp),%eax
 8072792:	89 44 24 04          	mov    %eax,0x4(%esp)
 8072796:	8d 85 f0 fe ff ff    	lea    0xfffffef0(%ebp),%eax
 807279c:	89 04 24             	mov    %eax,(%esp)
 807279f:	e8 9e 25 00 00       	call   8074d42 <_ZStneI15HandleNetPacketRS0_PS0_EbRKSt15_Deque_iteratorIT_T0_T1_ES9_>
 80727a4:	84 c0                	test   %al,%al
 80727a6:	75 83                	jne    807272b <_Z16RunCaptureThreadRN3zmq9context_tEiRSt5dequeI16CaptureNetPacketSaIS3_EERS2_I15HandleNetPacketSaIS7_EERS2_I17XML_ListeningItemSaISB_EE+0x577>
 80727a8:	e9 eb 00 00 00       	jmp    8072898 <_Z16RunCaptureThreadRN3zmq9context_tEiRSt5dequeI16CaptureNetPacketSaIS3_EERS2_I15HandleNetPacketSaIS7_EERS2_I17XML_ListeningItemSaISB_EE+0x6e4>
 80727ad:	89 c3                	mov    %eax,%ebx
 80727af:	8d 85 78 ff ff ff    	lea    0xffffff78(%ebp),%eax
 80727b5:	89 04 24             	mov    %eax,(%esp)
 80727b8:	e8 a3 f2 ff ff       	call   8071a60 <_ZNSsD1Ev@plt>
 80727bd:	89 d8                	mov    %ebx,%eax
 80727bf:	e9 b8 00 00 00       	jmp    807287c <_Z16RunCaptureThreadRN3zmq9context_tEiRSt5dequeI16CaptureNetPacketSaIS3_EERS2_I15HandleNetPacketSaIS7_EERS2_I17XML_ListeningItemSaISB_EE+0x6c8>
 80727c4:	89 c3                	mov    %eax,%ebx
 80727c6:	8d 85 08 fd ff ff    	lea    0xfffffd08(%ebp),%eax
 80727cc:	89 04 24             	mov    %eax,(%esp)
 80727cf:	e8 24 0f 00 00       	call   80736f8 <_ZN16CaptureNetPacketD1Ev>
 80727d4:	89 d8                	mov    %ebx,%eax
 80727d6:	e9 a1 00 00 00       	jmp    807287c <_Z16RunCaptureThreadRN3zmq9context_tEiRSt5dequeI16CaptureNetPacketSaIS3_EERS2_I15HandleNetPacketSaIS7_EERS2_I17XML_ListeningItemSaISB_EE+0x6c8>
 80727db:	89 c3                	mov    %eax,%ebx
 80727dd:	8d 85 7c ff ff ff    	lea    0xffffff7c(%ebp),%eax
 80727e3:	89 04 24             	mov    %eax,(%esp)
 80727e6:	e8 75 f2 ff ff       	call   8071a60 <_ZNSsD1Ev@plt>
 80727eb:	eb 11                	jmp    80727fe <_Z16RunCaptureThreadRN3zmq9context_tEiRSt5dequeI16CaptureNetPacketSaIS3_EERS2_I15HandleNetPacketSaIS7_EERS2_I17XML_ListeningItemSaISB_EE+0x64a>
 80727ed:	89 c3                	mov    %eax,%ebx
 80727ef:	8d 45 80             	lea    0xffffff80(%ebp),%eax
 80727f2:	89 04 24             	mov    %eax,(%esp)
 80727f5:	e8 c2 0a 00 00       	call   80732bc <_ZN7ZMQItemD1Ev>
 80727fa:	eb 02                	jmp    80727fe <_Z16RunCaptureThreadRN3zmq9context_tEiRSt5dequeI16CaptureNetPacketSaIS3_EERS2_I15HandleNetPacketSaIS7_EERS2_I17XML_ListeningItemSaISB_EE+0x64a>
 80727fc:	89 c3                	mov    %eax,%ebx
 80727fe:	8d 85 4c ff ff ff    	lea    0xffffff4c(%ebp),%eax
 8072804:	89 04 24             	mov    %eax,(%esp)
 8072807:	e8 b0 0a 00 00       	call   80732bc <_ZN7ZMQItemD1Ev>
 807280c:	89 d8                	mov    %ebx,%eax
 807280e:	eb 04                	jmp    8072814 <_Z16RunCaptureThreadRN3zmq9context_tEiRSt5dequeI16CaptureNetPacketSaIS3_EERS2_I15HandleNetPacketSaIS7_EERS2_I17XML_ListeningItemSaISB_EE+0x660>
 8072810:	eb 02                	jmp    8072814 <_Z16RunCaptureThreadRN3zmq9context_tEiRSt5dequeI16CaptureNetPacketSaIS3_EERS2_I15HandleNetPacketSaIS7_EERS2_I17XML_ListeningItemSaISB_EE+0x660>
 8072812:	eb 00                	jmp    8072814 <_Z16RunCaptureThreadRN3zmq9context_tEiRSt5dequeI16CaptureNetPacketSaIS3_EERS2_I15HandleNetPacketSaIS7_EERS2_I17XML_ListeningItemSaISB_EE+0x660>
 8072814:	89 c3                	mov    %eax,%ebx
 8072816:	eb 3c                	jmp    8072854 <_Z16RunCaptureThreadRN3zmq9context_tEiRSt5dequeI16CaptureNetPacketSaIS3_EERS2_I15HandleNetPacketSaIS7_EERS2_I17XML_ListeningItemSaISB_EE+0x6a0>
 8072818:	89 c3                	mov    %eax,%ebx
 807281a:	8d 45 9c             	lea    0xffffff9c(%ebp),%eax
 807281d:	89 04 24             	mov    %eax,(%esp)
 8072820:	e8 3b f2 ff ff       	call   8071a60 <_ZNSsD1Ev@plt>
 8072825:	eb 11                	jmp    8072838 <_Z16RunCaptureThreadRN3zmq9context_tEiRSt5dequeI16CaptureNetPacketSaIS3_EERS2_I15HandleNetPacketSaIS7_EERS2_I17XML_ListeningItemSaISB_EE+0x684>
 8072827:	89 c3                	mov    %eax,%ebx
 8072829:	8d 45 a0             	lea    0xffffffa0(%ebp),%eax
 807282c:	89 04 24             	mov    %eax,(%esp)
 807282f:	e8 88 0a 00 00       	call   80732bc <_ZN7ZMQItemD1Ev>
 8072834:	eb 02                	jmp    8072838 <_Z16RunCaptureThreadRN3zmq9context_tEiRSt5dequeI16CaptureNetPacketSaIS3_EERS2_I15HandleNetPacketSaIS7_EERS2_I17XML_ListeningItemSaISB_EE+0x684>
 8072836:	89 c3                	mov    %eax,%ebx
 8072838:	8d 85 20 ff ff ff    	lea    0xffffff20(%ebp),%eax
 807283e:	89 04 24             	mov    %eax,(%esp)
 8072841:	e8 76 0a 00 00       	call   80732bc <_ZN7ZMQItemD1Ev>
 8072846:	89 d8                	mov    %ebx,%eax
 8072848:	eb 04                	jmp    807284e <_Z16RunCaptureThreadRN3zmq9context_tEiRSt5dequeI16CaptureNetPacketSaIS3_EERS2_I15HandleNetPacketSaIS7_EERS2_I17XML_ListeningItemSaISB_EE+0x69a>
 807284a:	eb 02                	jmp    807284e <_Z16RunCaptureThreadRN3zmq9context_tEiRSt5dequeI16CaptureNetPacketSaIS3_EERS2_I15HandleNetPacketSaIS7_EERS2_I17XML_ListeningItemSaISB_EE+0x69a>
 807284c:	eb 00                	jmp    807284e <_Z16RunCaptureThreadRN3zmq9context_tEiRSt5dequeI16CaptureNetPacketSaIS3_EERS2_I15HandleNetPacketSaIS7_EERS2_I17XML_ListeningItemSaISB_EE+0x69a>
 807284e:	89 c3                	mov    %eax,%ebx
 8072850:	eb 02                	jmp    8072854 <_Z16RunCaptureThreadRN3zmq9context_tEiRSt5dequeI16CaptureNetPacketSaIS3_EERS2_I15HandleNetPacketSaIS7_EERS2_I17XML_ListeningItemSaISB_EE+0x6a0>
 8072852:	89 c3                	mov    %eax,%ebx
 8072854:	8d 85 30 fd ff ff    	lea    0xfffffd30(%ebp),%eax
 807285a:	89 04 24             	mov    %eax,(%esp)
 807285d:	e8 b2 12 00 00       	call   8073b14 <_ZN15HandleNetPacketD1Ev>
 8072862:	eb 02                	jmp    8072866 <_Z16RunCaptureThreadRN3zmq9context_tEiRSt5dequeI16CaptureNetPacketSaIS3_EERS2_I15HandleNetPacketSaIS7_EERS2_I17XML_ListeningItemSaISB_EE+0x6b2>
 8072864:	89 c3                	mov    %eax,%ebx
 8072866:	8d 85 08 fd ff ff    	lea    0xfffffd08(%ebp),%eax
 807286c:	89 04 24             	mov    %eax,(%esp)
 807286f:	e8 84 0e 00 00       	call   80736f8 <_ZN16CaptureNetPacketD1Ev>
 8072874:	89 d8                	mov    %ebx,%eax
 8072876:	eb 04                	jmp    807287c <_Z16RunCaptureThreadRN3zmq9context_tEiRSt5dequeI16CaptureNetPacketSaIS3_EERS2_I15HandleNetPacketSaIS7_EERS2_I17XML_ListeningItemSaISB_EE+0x6c8>
 8072878:	eb 02                	jmp    807287c <_Z16RunCaptureThreadRN3zmq9context_tEiRSt5dequeI16CaptureNetPacketSaIS3_EERS2_I15HandleNetPacketSaIS7_EERS2_I17XML_ListeningItemSaISB_EE+0x6c8>
 807287a:	eb 00                	jmp    807287c <_Z16RunCaptureThreadRN3zmq9context_tEiRSt5dequeI16CaptureNetPacketSaIS3_EERS2_I15HandleNetPacketSaIS7_EERS2_I17XML_ListeningItemSaISB_EE+0x6c8>
 807287c:	89 04 24             	mov    %eax,(%esp)
 807287f:	e8 cc f2 ff ff       	call   8071b50 <_Unwind_Resume@plt>
 8072884:	eb 00                	jmp    8072886 <_Z16RunCaptureThreadRN3zmq9context_tEiRSt5dequeI16CaptureNetPacketSaIS3_EERS2_I15HandleNetPacketSaIS7_EERS2_I17XML_ListeningItemSaISB_EE+0x6d2>
 8072886:	89 04 24             	mov    %eax,(%esp)
 8072889:	e8 c2 f2 ff ff       	call   8071b50 <_Unwind_Resume@plt>
 807288e:	eb 00                	jmp    8072890 <_Z16RunCaptureThreadRN3zmq9context_tEiRSt5dequeI16CaptureNetPacketSaIS3_EERS2_I15HandleNetPacketSaIS7_EERS2_I17XML_ListeningItemSaISB_EE+0x6dc>
 8072890:	89 04 24             	mov    %eax,(%esp)
 8072893:	e8 b8 f2 ff ff       	call   8071b50 <_Unwind_Resume@plt>
 8072898:	8b 5d fc             	mov    0xfffffffc(%ebp),%ebx
 807289b:	c9                   	leave  
 807289c:	c3                   	ret    

0807289d <_Z17JoinCaptureThreadRSt5dequeI16CaptureNetPacketSaIS0_EERS_I15HandleNetPacketSaIS4_EE>:
 807289d:	55                   	push   %ebp
 807289e:	89 e5                	mov    %esp,%ebp
 80728a0:	83 ec 68             	sub    $0x68,%esp
 80728a3:	8d 45 c8             	lea    0xffffffc8(%ebp),%eax
 80728a6:	8b 55 08             	mov    0x8(%ebp),%edx
 80728a9:	89 54 24 04          	mov    %edx,0x4(%esp)
 80728ad:	89 04 24             	mov    %eax,(%esp)
 80728b0:	e8 49 23 00 00       	call   8074bfe <_ZNSt5dequeI16CaptureNetPacketSaIS0_EE5beginEv>
 80728b5:	83 ec 04             	sub    $0x4,%esp
 80728b8:	eb 30                	jmp    80728ea <_Z17JoinCaptureThreadRSt5dequeI16CaptureNetPacketSaIS0_EERS_I15HandleNetPacketSaIS4_EE+0x4d>
 80728ba:	8d 45 c8             	lea    0xffffffc8(%ebp),%eax
 80728bd:	89 04 24             	mov    %eax,(%esp)
 80728c0:	e8 fb 23 00 00       	call   8074cc0 <_ZNKSt15_Deque_iteratorI16CaptureNetPacketRS0_PS0_EptEv>
 80728c5:	89 04 24             	mov    %eax,(%esp)
 80728c8:	e8 5f 0c 00 00       	call   807352c <_ZN10BaseThread4JoinEv>
 80728cd:	8d 45 a8             	lea    0xffffffa8(%ebp),%eax
 80728d0:	c7 44 24 08 00 00 00 	movl   $0x0,0x8(%esp)
 80728d7:	00 
 80728d8:	8d 55 c8             	lea    0xffffffc8(%ebp),%edx
 80728db:	89 54 24 04          	mov    %edx,0x4(%esp)
 80728df:	89 04 24             	mov    %eax,(%esp)
 80728e2:	e8 ad 23 00 00       	call   8074c94 <_ZNSt15_Deque_iteratorI16CaptureNetPacketRS0_PS0_EppEi>
 80728e7:	83 ec 04             	sub    $0x4,%esp
 80728ea:	8d 45 d8             	lea    0xffffffd8(%ebp),%eax
 80728ed:	8b 55 08             	mov    0x8(%ebp),%edx
 80728f0:	89 54 24 04          	mov    %edx,0x4(%esp)
 80728f4:	89 04 24             	mov    %eax,(%esp)
 80728f7:	e8 58 23 00 00       	call   8074c54 <_ZNSt5dequeI16CaptureNetPacketSaIS0_EE3endEv>
 80728fc:	83 ec 04             	sub    $0x4,%esp
 80728ff:	8d 45 d8             	lea    0xffffffd8(%ebp),%eax
 8072902:	89 44 24 04          	mov    %eax,0x4(%esp)
 8072906:	8d 45 c8             	lea    0xffffffc8(%ebp),%eax
 8072909:	89 04 24             	mov    %eax,(%esp)
 807290c:	e8 65 23 00 00       	call   8074c76 <_ZStneI16CaptureNetPacketRS0_PS0_EbRKSt15_Deque_iteratorIT_T0_T1_ES9_>
 8072911:	84 c0                	test   %al,%al
 8072913:	75 a5                	jne    80728ba <_Z17JoinCaptureThreadRSt5dequeI16CaptureNetPacketSaIS0_EERS_I15HandleNetPacketSaIS4_EE+0x1d>
 8072915:	8d 45 b8             	lea    0xffffffb8(%ebp),%eax
 8072918:	8b 55 0c             	mov    0xc(%ebp),%edx
 807291b:	89 54 24 04          	mov    %edx,0x4(%esp)
 807291f:	89 04 24             	mov    %eax,(%esp)
 8072922:	e8 a3 23 00 00       	call   8074cca <_ZNSt5dequeI15HandleNetPacketSaIS0_EE5beginEv>
 8072927:	83 ec 04             	sub    $0x4,%esp
 807292a:	eb 30                	jmp    807295c <_Z17JoinCaptureThreadRSt5dequeI16CaptureNetPacketSaIS0_EERS_I15HandleNetPacketSaIS4_EE+0xbf>
 807292c:	8d 45 b8             	lea    0xffffffb8(%ebp),%eax
 807292f:	89 04 24             	mov    %eax,(%esp)
 8072932:	e8 55 24 00 00       	call   8074d8c <_ZNKSt15_Deque_iteratorI15HandleNetPacketRS0_PS0_EptEv>
 8072937:	89 04 24             	mov    %eax,(%esp)
 807293a:	e8 ed 0b 00 00       	call   807352c <_ZN10BaseThread4JoinEv>
 807293f:	8d 45 a8             	lea    0xffffffa8(%ebp),%eax
 8072942:	c7 44 24 08 00 00 00 	movl   $0x0,0x8(%esp)
 8072949:	00 
 807294a:	8d 55 b8             	lea    0xffffffb8(%ebp),%edx
 807294d:	89 54 24 04          	mov    %edx,0x4(%esp)
 8072951:	89 04 24             	mov    %eax,(%esp)
 8072954:	e8 07 24 00 00       	call   8074d60 <_ZNSt15_Deque_iteratorI15HandleNetPacketRS0_PS0_EppEi>
 8072959:	83 ec 04             	sub    $0x4,%esp
 807295c:	8d 45 e8             	lea    0xffffffe8(%ebp),%eax
 807295f:	8b 55 0c             	mov    0xc(%ebp),%edx
 8072962:	89 54 24 04          	mov    %edx,0x4(%esp)
 8072966:	89 04 24             	mov    %eax,(%esp)
 8072969:	e8 b2 23 00 00       	call   8074d20 <_ZNSt5dequeI15HandleNetPacketSaIS0_EE3endEv>
 807296e:	83 ec 04             	sub    $0x4,%esp
 8072971:	8d 45 e8             	lea    0xffffffe8(%ebp),%eax
 8072974:	89 44 24 04          	mov    %eax,0x4(%esp)
 8072978:	8d 45 b8             	lea    0xffffffb8(%ebp),%eax
 807297b:	89 04 24             	mov    %eax,(%esp)
 807297e:	e8 bf 23 00 00       	call   8074d42 <_ZStneI15HandleNetPacketRS0_PS0_EbRKSt15_Deque_iteratorIT_T0_T1_ES9_>
 8072983:	84 c0                	test   %al,%al
 8072985:	75 a5                	jne    807292c <_Z17JoinCaptureThreadRSt5dequeI16CaptureNetPacketSaIS0_EERS_I15HandleNetPacketSaIS4_EE+0x8f>
 8072987:	eb 14                	jmp    807299d <_Z17JoinCaptureThreadRSt5dequeI16CaptureNetPacketSaIS0_EERS_I15HandleNetPacketSaIS4_EE+0x100>
 8072989:	eb 00                	jmp    807298b <_Z17JoinCaptureThreadRSt5dequeI16CaptureNetPacketSaIS0_EERS_I15HandleNetPacketSaIS4_EE+0xee>
 807298b:	89 04 24             	mov    %eax,(%esp)
 807298e:	e8 bd f1 ff ff       	call   8071b50 <_Unwind_Resume@plt>
 8072993:	eb 00                	jmp    8072995 <_Z17JoinCaptureThreadRSt5dequeI16CaptureNetPacketSaIS0_EERS_I15HandleNetPacketSaIS4_EE+0xf8>
 8072995:	89 04 24             	mov    %eax,(%esp)
 8072998:	e8 b3 f1 ff ff       	call   8071b50 <_Unwind_Resume@plt>
 807299d:	c9                   	leave  
 807299e:	c3                   	ret    

0807299f <main>:
 807299f:	55                   	push   %ebp
 80729a0:	89 e5                	mov    %esp,%ebp
 80729a2:	53                   	push   %ebx
 80729a3:	83 e4 f0             	and    $0xfffffff0,%esp
 80729a6:	81 ec 10 01 00 00    	sub    $0x110,%esp
 80729ac:	e8 5f f4 ff ff       	call   8071e10 <_Z19get_network_adapterv>
 80729b1:	89 84 24 0c 01 00 00 	mov    %eax,0x10c(%esp)
 80729b8:	83 bc 24 0c 01 00 00 	cmpl   $0x0,0x10c(%esp)
 80729bf:	00 
 80729c0:	79 24                	jns    80729e6 <main+0x47>
 80729c2:	c7 44 24 0c 48 62 09 	movl   $0x8096248,0xc(%esp)
 80729c9:	08 
 80729ca:	c7 44 24 08 ab 00 00 	movl   $0xab,0x8(%esp)
 80729d1:	00 
 80729d2:	c7 44 24 04 8b 60 09 	movl   $0x809608b,0x4(%esp)
 80729d9:	08 
 80729da:	c7 04 24 96 60 09 08 	movl   $0x8096096,(%esp)
 80729e1:	e8 6a f2 ff ff       	call   8071c50 <__assert_fail@plt>
 80729e6:	c7 44 24 04 a6 60 09 	movl   $0x80960a6,0x4(%esp)
 80729ed:	08 
 80729ee:	8d 84 24 9c 00 00 00 	lea    0x9c(%esp),%eax
 80729f5:	89 04 24             	mov    %eax,(%esp)
 80729f8:	e8 ed 13 00 00       	call   8073dea <_ZN12ConfigParserC1EPc>
 80729fd:	8d 84 24 9c 00 00 00 	lea    0x9c(%esp),%eax
 8072a04:	89 04 24             	mov    %eax,(%esp)
 8072a07:	e8 5a 69 01 00       	call   8089366 <_ZN12ConfigParser5ParseEv>
 8072a0c:	c7 44 24 04 01 00 00 	movl   $0x1,0x4(%esp)
 8072a13:	00 
 8072a14:	8d 84 24 fc 00 00 00 	lea    0xfc(%esp),%eax
 8072a1b:	89 04 24             	mov    %eax,(%esp)
 8072a1e:	e8 a1 06 00 00       	call   80730c4 <_ZN3zmq9context_tC1Ei>
 8072a23:	8d 84 24 9c 00 00 00 	lea    0x9c(%esp),%eax
 8072a2a:	89 04 24             	mov    %eax,(%esp)
 8072a2d:	e8 0a 15 00 00       	call   8073f3c <_ZN12ConfigParser9get_portsEv>
 8072a32:	89 84 24 08 01 00 00 	mov    %eax,0x108(%esp)
 8072a39:	8d 84 24 9c 00 00 00 	lea    0x9c(%esp),%eax
 8072a40:	89 04 24             	mov    %eax,(%esp)
 8072a43:	e8 e8 14 00 00       	call   8073f30 <_ZN12ConfigParser11get_log_objEv>
 8072a48:	89 84 24 04 01 00 00 	mov    %eax,0x104(%esp)
 8072a4f:	8b 84 24 08 01 00 00 	mov    0x108(%esp),%eax
 8072a56:	89 44 24 08          	mov    %eax,0x8(%esp)
 8072a5a:	8d 84 24 fc 00 00 00 	lea    0xfc(%esp),%eax
 8072a61:	89 44 24 04          	mov    %eax,0x4(%esp)
 8072a65:	8d 44 24 24          	lea    0x24(%esp),%eax
 8072a69:	89 04 24             	mov    %eax,(%esp)
 8072a6c:	e8 29 0b 00 00       	call   807359a <_ZN3LogC1EPN3zmq9context_tERSt6vectorIiSaIiEE>
 8072a71:	8b 84 24 04 01 00 00 	mov    0x104(%esp),%eax
 8072a78:	89 44 24 08          	mov    %eax,0x8(%esp)
 8072a7c:	8d 44 24 24          	lea    0x24(%esp),%eax
 8072a80:	89 44 24 04          	mov    %eax,0x4(%esp)
 8072a84:	8d 84 24 fc 00 00 00 	lea    0xfc(%esp),%eax
 8072a8b:	89 04 24             	mov    %eax,(%esp)
 8072a8e:	e8 73 f5 ff ff       	call   8072006 <_Z12RunLogThreadRN3zmq9context_tER3LogR7XML_Log>
 8072a93:	8d 44 24 4c          	lea    0x4c(%esp),%eax
 8072a97:	89 04 24             	mov    %eax,(%esp)
 8072a9a:	e8 f7 22 00 00       	call   8074d96 <_ZNSt5dequeI16CaptureNetPacketSaIS0_EEC1Ev>
 8072a9f:	8d 44 24 74          	lea    0x74(%esp),%eax
 8072aa3:	89 04 24             	mov    %eax,(%esp)
 8072aa6:	e8 83 23 00 00       	call   8074e2e <_ZNSt5dequeI15HandleNetPacketSaIS0_EEC1Ev>
 8072aab:	8d 84 24 9c 00 00 00 	lea    0x9c(%esp),%eax
 8072ab2:	89 04 24             	mov    %eax,(%esp)
 8072ab5:	e8 6a 14 00 00       	call   8073f24 <_ZN12ConfigParser18get_listeningitemsEv>
 8072aba:	89 84 24 00 01 00 00 	mov    %eax,0x100(%esp)
 8072ac1:	8b 84 24 00 01 00 00 	mov    0x100(%esp),%eax
 8072ac8:	89 44 24 10          	mov    %eax,0x10(%esp)
 8072acc:	8d 44 24 74          	lea    0x74(%esp),%eax
 8072ad0:	89 44 24 0c          	mov    %eax,0xc(%esp)
 8072ad4:	8d 44 24 4c          	lea    0x4c(%esp),%eax
 8072ad8:	89 44 24 08          	mov    %eax,0x8(%esp)
 8072adc:	8b 84 24 0c 01 00 00 	mov    0x10c(%esp),%eax
 8072ae3:	89 44 24 04          	mov    %eax,0x4(%esp)
 8072ae7:	8d 84 24 fc 00 00 00 	lea    0xfc(%esp),%eax
 8072aee:	89 04 24             	mov    %eax,(%esp)
 8072af1:	e8 be f6 ff ff       	call   80721b4 <_Z16RunCaptureThreadRN3zmq9context_tEiRSt5dequeI16CaptureNetPacketSaIS3_EERS2_I15HandleNetPacketSaIS7_EERS2_I17XML_ListeningItemSaISB_EE>
 8072af6:	8d 44 24 74          	lea    0x74(%esp),%eax
 8072afa:	89 44 24 04          	mov    %eax,0x4(%esp)
 8072afe:	8d 44 24 4c          	lea    0x4c(%esp),%eax
 8072b02:	89 04 24             	mov    %eax,(%esp)
 8072b05:	e8 93 fd ff ff       	call   807289d <_Z17JoinCaptureThreadRSt5dequeI16CaptureNetPacketSaIS0_EERS_I15HandleNetPacketSaIS4_EE>
 8072b0a:	c7 04 24 00 00 00 00 	movl   $0x0,(%esp)
 8072b11:	e8 7a ee ff ff       	call   8071990 <pthread_exit@plt>
 8072b16:	89 c3                	mov    %eax,%ebx
 8072b18:	8d 44 24 74          	lea    0x74(%esp),%eax
 8072b1c:	89 04 24             	mov    %eax,(%esp)
 8072b1f:	e8 1e 23 00 00       	call   8074e42 <_ZNSt5dequeI15HandleNetPacketSaIS0_EED1Ev>
 8072b24:	eb 02                	jmp    8072b28 <main+0x189>
 8072b26:	89 c3                	mov    %eax,%ebx
 8072b28:	8d 44 24 4c          	lea    0x4c(%esp),%eax
 8072b2c:	89 04 24             	mov    %eax,(%esp)
 8072b2f:	e8 76 22 00 00       	call   8074daa <_ZNSt5dequeI16CaptureNetPacketSaIS0_EED1Ev>
 8072b34:	eb 02                	jmp    8072b38 <main+0x199>
 8072b36:	89 c3                	mov    %eax,%ebx
 8072b38:	8d 44 24 24          	lea    0x24(%esp),%eax
 8072b3c:	89 04 24             	mov    %eax,(%esp)
 8072b3f:	e8 ae 0a 00 00       	call   80735f2 <_ZN3LogD1Ev>
 8072b44:	eb 02                	jmp    8072b48 <main+0x1a9>
 8072b46:	89 c3                	mov    %eax,%ebx
 8072b48:	8d 84 24 fc 00 00 00 	lea    0xfc(%esp),%eax
 8072b4f:	89 04 24             	mov    %eax,(%esp)
 8072b52:	e8 d7 05 00 00       	call   807312e <_ZN3zmq9context_tD1Ev>
 8072b57:	eb 02                	jmp    8072b5b <main+0x1bc>
 8072b59:	89 c3                	mov    %eax,%ebx
 8072b5b:	8d 84 24 9c 00 00 00 	lea    0x9c(%esp),%eax
 8072b62:	89 04 24             	mov    %eax,(%esp)
 8072b65:	e8 3a 13 00 00       	call   8073ea4 <_ZN12ConfigParserD1Ev>
 8072b6a:	89 d8                	mov    %ebx,%eax
 8072b6c:	eb 00                	jmp    8072b6e <main+0x1cf>
 8072b6e:	89 04 24             	mov    %eax,(%esp)
 8072b71:	e8 da ef ff ff       	call   8071b50 <_Unwind_Resume@plt>

08072b76 <_Z41__static_initialization_and_destruction_0ii>:
 8072b76:	55                   	push   %ebp
 8072b77:	89 e5                	mov    %esp,%ebp
 8072b79:	83 ec 18             	sub    $0x18,%esp
 8072b7c:	83 7d 08 01          	cmpl   $0x1,0x8(%ebp)
 8072b80:	75 31                	jne    8072bb3 <_Z41__static_initialization_and_destruction_0ii+0x3d>
 8072b82:	81 7d 0c ff ff 00 00 	cmpl   $0xffff,0xc(%ebp)
 8072b89:	75 28                	jne    8072bb3 <_Z41__static_initialization_and_destruction_0ii+0x3d>
 8072b8b:	c7 04 24 68 6e 0b 08 	movl   $0x80b6e68,(%esp)
 8072b92:	e8 a9 ee ff ff       	call   8071a40 <_ZNSt8ios_base4InitC1Ev@plt>
 8072b97:	c7 44 24 08 a4 23 0b 	movl   $0x80b23a4,0x8(%esp)
 8072b9e:	08 
 8072b9f:	c7 44 24 04 68 6e 0b 	movl   $0x80b6e68,0x4(%esp)
 8072ba6:	08 
 8072ba7:	c7 04 24 a0 1c 07 08 	movl   $0x8071ca0,(%esp)
 8072bae:	e8 6d eb ff ff       	call   8071720 <__cxa_atexit@plt>
 8072bb3:	c9                   	leave  
 8072bb4:	c3                   	ret    

08072bb5 <_GLOBAL__sub_I__Z19get_network_adapterv>:
 8072bb5:	55                   	push   %ebp
 8072bb6:	89 e5                	mov    %esp,%ebp
 8072bb8:	83 ec 18             	sub    $0x18,%esp
 8072bbb:	c7 44 24 04 ff ff 00 	movl   $0xffff,0x4(%esp)
 8072bc2:	00 
 8072bc3:	c7 04 24 01 00 00 00 	movl   $0x1,(%esp)
 8072bca:	e8 a7 ff ff ff       	call   8072b76 <_Z41__static_initialization_and_destruction_0ii>
 8072bcf:	c9                   	leave  
 8072bd0:	c3                   	ret    
 8072bd1:	90                   	nop    

08072bd2 <_ZNSt9exceptionC1Ev>:
 8072bd2:	55                   	push   %ebp
 8072bd3:	89 e5                	mov    %esp,%ebp
 8072bd5:	8b 45 08             	mov    0x8(%ebp),%eax
 8072bd8:	c7 00 f8 6c 0b 08    	movl   $0x80b6cf8,(%eax)
 8072bde:	5d                   	pop    %ebp
 8072bdf:	c3                   	ret    

08072be0 <_ZnwjPv>:
 8072be0:	55                   	push   %ebp
 8072be1:	89 e5                	mov    %esp,%ebp
 8072be3:	8b 45 0c             	mov    0xc(%ebp),%eax
 8072be6:	5d                   	pop    %ebp
 8072be7:	c3                   	ret    

08072be8 <_ZdlPvS_>:
 8072be8:	55                   	push   %ebp
 8072be9:	89 e5                	mov    %esp,%ebp
 8072beb:	5d                   	pop    %ebp
 8072bec:	c3                   	ret    

08072bed <_ZNSt18_Rb_tree_node_base10_S_minimumEPS_>:
 8072bed:	55                   	push   %ebp
 8072bee:	89 e5                	mov    %esp,%ebp
 8072bf0:	eb 09                	jmp    8072bfb <_ZNSt18_Rb_tree_node_base10_S_minimumEPS_+0xe>
 8072bf2:	8b 45 08             	mov    0x8(%ebp),%eax
 8072bf5:	8b 40 08             	mov    0x8(%eax),%eax
 8072bf8:	89 45 08             	mov    %eax,0x8(%ebp)
 8072bfb:	8b 45 08             	mov    0x8(%ebp),%eax
 8072bfe:	8b 40 08             	mov    0x8(%eax),%eax
 8072c01:	85 c0                	test   %eax,%eax
 8072c03:	75 ed                	jne    8072bf2 <_ZNSt18_Rb_tree_node_base10_S_minimumEPS_+0x5>
 8072c05:	8b 45 08             	mov    0x8(%ebp),%eax
 8072c08:	5d                   	pop    %ebp
 8072c09:	c3                   	ret    

08072c0a <_ZNSt18_Rb_tree_node_base10_S_maximumEPS_>:
 8072c0a:	55                   	push   %ebp
 8072c0b:	89 e5                	mov    %esp,%ebp
 8072c0d:	eb 09                	jmp    8072c18 <_ZNSt18_Rb_tree_node_base10_S_maximumEPS_+0xe>
 8072c0f:	8b 45 08             	mov    0x8(%ebp),%eax
 8072c12:	8b 40 0c             	mov    0xc(%eax),%eax
 8072c15:	89 45 08             	mov    %eax,0x8(%ebp)
 8072c18:	8b 45 08             	mov    0x8(%ebp),%eax
 8072c1b:	8b 40 0c             	mov    0xc(%eax),%eax
 8072c1e:	85 c0                	test   %eax,%eax
 8072c20:	75 ed                	jne    8072c0f <_ZNSt18_Rb_tree_node_base10_S_maximumEPS_+0x5>
 8072c22:	8b 45 08             	mov    0x8(%ebp),%eax
 8072c25:	5d                   	pop    %ebp
 8072c26:	c3                   	ret    

08072c27 <_ZSt16__deque_buf_sizej>:
 8072c27:	55                   	push   %ebp
 8072c28:	89 e5                	mov    %esp,%ebp
 8072c2a:	81 7d 08 ff 01 00 00 	cmpl   $0x1ff,0x8(%ebp)
 8072c31:	77 0f                	ja     8072c42 <_ZSt16__deque_buf_sizej+0x1b>
 8072c33:	b8 00 02 00 00       	mov    $0x200,%eax
 8072c38:	ba 00 00 00 00       	mov    $0x0,%edx
 8072c3d:	f7 75 08             	divl   0x8(%ebp)
 8072c40:	eb 05                	jmp    8072c47 <_ZSt16__deque_buf_sizej+0x20>
 8072c42:	b8 01 00 00 00       	mov    $0x1,%eax
 8072c47:	5d                   	pop    %ebp
 8072c48:	c3                   	ret    
 8072c49:	90                   	nop    

08072c4a <_ZN7XML_ZMQD1Ev>:
 8072c4a:	55                   	push   %ebp
 8072c4b:	89 e5                	mov    %esp,%ebp
 8072c4d:	53                   	push   %ebx
 8072c4e:	83 ec 14             	sub    $0x14,%esp
 8072c51:	8b 45 08             	mov    0x8(%ebp),%eax
 8072c54:	83 c0 08             	add    $0x8,%eax
 8072c57:	89 04 24             	mov    %eax,(%esp)
 8072c5a:	e8 01 ee ff ff       	call   8071a60 <_ZNSsD1Ev@plt>
 8072c5f:	8b 45 08             	mov    0x8(%ebp),%eax
 8072c62:	83 c0 04             	add    $0x4,%eax
 8072c65:	89 04 24             	mov    %eax,(%esp)
 8072c68:	e8 f3 ed ff ff       	call   8071a60 <_ZNSsD1Ev@plt>
 8072c6d:	8b 45 08             	mov    0x8(%ebp),%eax
 8072c70:	89 04 24             	mov    %eax,(%esp)
 8072c73:	e8 e8 ed ff ff       	call   8071a60 <_ZNSsD1Ev@plt>
 8072c78:	eb 29                	jmp    8072ca3 <_ZN7XML_ZMQD1Ev+0x59>
 8072c7a:	89 c3                	mov    %eax,%ebx
 8072c7c:	8b 45 08             	mov    0x8(%ebp),%eax
 8072c7f:	83 c0 04             	add    $0x4,%eax
 8072c82:	89 04 24             	mov    %eax,(%esp)
 8072c85:	e8 d6 ed ff ff       	call   8071a60 <_ZNSsD1Ev@plt>
 8072c8a:	eb 02                	jmp    8072c8e <_ZN7XML_ZMQD1Ev+0x44>
 8072c8c:	89 c3                	mov    %eax,%ebx
 8072c8e:	8b 45 08             	mov    0x8(%ebp),%eax
 8072c91:	89 04 24             	mov    %eax,(%esp)
 8072c94:	e8 c7 ed ff ff       	call   8071a60 <_ZNSsD1Ev@plt>
 8072c99:	89 d8                	mov    %ebx,%eax
 8072c9b:	89 04 24             	mov    %eax,(%esp)
 8072c9e:	e8 ad ee ff ff       	call   8071b50 <_Unwind_Resume@plt>
 8072ca3:	83 c4 14             	add    $0x14,%esp
 8072ca6:	5b                   	pop    %ebx
 8072ca7:	5d                   	pop    %ebp
 8072ca8:	c3                   	ret    
 8072ca9:	90                   	nop    

08072caa <_ZN7XML_ZMQ14get_zmqpatternEv>:
 8072caa:	55                   	push   %ebp
 8072cab:	89 e5                	mov    %esp,%ebp
 8072cad:	83 ec 18             	sub    $0x18,%esp
 8072cb0:	8b 45 08             	mov    0x8(%ebp),%eax
 8072cb3:	89 44 24 04          	mov    %eax,0x4(%esp)
 8072cb7:	c7 04 24 80 5f 09 08 	movl   $0x8095f80,(%esp)
 8072cbe:	e8 84 12 00 00       	call   8073f47 <_ZSteqIcSt11char_traitsIcESaIcEEbPKT_RKSbIS3_T0_T1_E>
 8072cc3:	84 c0                	test   %al,%al
 8072cc5:	74 0a                	je     8072cd1 <_ZN7XML_ZMQ14get_zmqpatternEv+0x27>
 8072cc7:	b8 00 00 00 00       	mov    $0x0,%eax
 8072ccc:	e9 3b 01 00 00       	jmp    8072e0c <_ZN7XML_ZMQ14get_zmqpatternEv+0x162>
 8072cd1:	8b 45 08             	mov    0x8(%ebp),%eax
 8072cd4:	89 44 24 04          	mov    %eax,0x4(%esp)
 8072cd8:	c7 04 24 85 5f 09 08 	movl   $0x8095f85,(%esp)
 8072cdf:	e8 63 12 00 00       	call   8073f47 <_ZSteqIcSt11char_traitsIcESaIcEEbPKT_RKSbIS3_T0_T1_E>
 8072ce4:	84 c0                	test   %al,%al
 8072ce6:	74 0a                	je     8072cf2 <_ZN7XML_ZMQ14get_zmqpatternEv+0x48>
 8072ce8:	b8 01 00 00 00       	mov    $0x1,%eax
 8072ced:	e9 1a 01 00 00       	jmp    8072e0c <_ZN7XML_ZMQ14get_zmqpatternEv+0x162>
 8072cf2:	8b 45 08             	mov    0x8(%ebp),%eax
 8072cf5:	89 44 24 04          	mov    %eax,0x4(%esp)
 8072cf9:	c7 04 24 89 5f 09 08 	movl   $0x8095f89,(%esp)
 8072d00:	e8 42 12 00 00       	call   8073f47 <_ZSteqIcSt11char_traitsIcESaIcEEbPKT_RKSbIS3_T0_T1_E>
 8072d05:	84 c0                	test   %al,%al
 8072d07:	74 0a                	je     8072d13 <_ZN7XML_ZMQ14get_zmqpatternEv+0x69>
 8072d09:	b8 02 00 00 00       	mov    $0x2,%eax
 8072d0e:	e9 f9 00 00 00       	jmp    8072e0c <_ZN7XML_ZMQ14get_zmqpatternEv+0x162>
 8072d13:	8b 45 08             	mov    0x8(%ebp),%eax
 8072d16:	89 44 24 04          	mov    %eax,0x4(%esp)
 8072d1a:	c7 04 24 8d 5f 09 08 	movl   $0x8095f8d,(%esp)
 8072d21:	e8 21 12 00 00       	call   8073f47 <_ZSteqIcSt11char_traitsIcESaIcEEbPKT_RKSbIS3_T0_T1_E>
 8072d26:	84 c0                	test   %al,%al
 8072d28:	74 0a                	je     8072d34 <_ZN7XML_ZMQ14get_zmqpatternEv+0x8a>
 8072d2a:	b8 03 00 00 00       	mov    $0x3,%eax
 8072d2f:	e9 d8 00 00 00       	jmp    8072e0c <_ZN7XML_ZMQ14get_zmqpatternEv+0x162>
 8072d34:	8b 45 08             	mov    0x8(%ebp),%eax
 8072d37:	89 44 24 04          	mov    %eax,0x4(%esp)
 8072d3b:	c7 04 24 91 5f 09 08 	movl   $0x8095f91,(%esp)
 8072d42:	e8 00 12 00 00       	call   8073f47 <_ZSteqIcSt11char_traitsIcESaIcEEbPKT_RKSbIS3_T0_T1_E>
 8072d47:	84 c0                	test   %al,%al
 8072d49:	74 0a                	je     8072d55 <_ZN7XML_ZMQ14get_zmqpatternEv+0xab>
 8072d4b:	b8 04 00 00 00       	mov    $0x4,%eax
 8072d50:	e9 b7 00 00 00       	jmp    8072e0c <_ZN7XML_ZMQ14get_zmqpatternEv+0x162>
 8072d55:	8b 45 08             	mov    0x8(%ebp),%eax
 8072d58:	89 44 24 04          	mov    %eax,0x4(%esp)
 8072d5c:	c7 04 24 95 5f 09 08 	movl   $0x8095f95,(%esp)
 8072d63:	e8 df 11 00 00       	call   8073f47 <_ZSteqIcSt11char_traitsIcESaIcEEbPKT_RKSbIS3_T0_T1_E>
 8072d68:	84 c0                	test   %al,%al
 8072d6a:	74 0a                	je     8072d76 <_ZN7XML_ZMQ14get_zmqpatternEv+0xcc>
 8072d6c:	b8 05 00 00 00       	mov    $0x5,%eax
 8072d71:	e9 96 00 00 00       	jmp    8072e0c <_ZN7XML_ZMQ14get_zmqpatternEv+0x162>
 8072d76:	8b 45 08             	mov    0x8(%ebp),%eax
 8072d79:	89 44 24 04          	mov    %eax,0x4(%esp)
 8072d7d:	c7 04 24 9c 5f 09 08 	movl   $0x8095f9c,(%esp)
 8072d84:	e8 be 11 00 00       	call   8073f47 <_ZSteqIcSt11char_traitsIcESaIcEEbPKT_RKSbIS3_T0_T1_E>
 8072d89:	84 c0                	test   %al,%al
 8072d8b:	74 07                	je     8072d94 <_ZN7XML_ZMQ14get_zmqpatternEv+0xea>
 8072d8d:	b8 06 00 00 00       	mov    $0x6,%eax
 8072d92:	eb 78                	jmp    8072e0c <_ZN7XML_ZMQ14get_zmqpatternEv+0x162>
 8072d94:	8b 45 08             	mov    0x8(%ebp),%eax
 8072d97:	89 44 24 04          	mov    %eax,0x4(%esp)
 8072d9b:	c7 04 24 a3 5f 09 08 	movl   $0x8095fa3,(%esp)
 8072da2:	e8 a0 11 00 00       	call   8073f47 <_ZSteqIcSt11char_traitsIcESaIcEEbPKT_RKSbIS3_T0_T1_E>
 8072da7:	84 c0                	test   %al,%al
 8072da9:	74 07                	je     8072db2 <_ZN7XML_ZMQ14get_zmqpatternEv+0x108>
 8072dab:	b8 07 00 00 00       	mov    $0x7,%eax
 8072db0:	eb 5a                	jmp    8072e0c <_ZN7XML_ZMQ14get_zmqpatternEv+0x162>
 8072db2:	8b 45 08             	mov    0x8(%ebp),%eax
 8072db5:	89 44 24 04          	mov    %eax,0x4(%esp)
 8072db9:	c7 04 24 a8 5f 09 08 	movl   $0x8095fa8,(%esp)
 8072dc0:	e8 82 11 00 00       	call   8073f47 <_ZSteqIcSt11char_traitsIcESaIcEEbPKT_RKSbIS3_T0_T1_E>
 8072dc5:	84 c0                	test   %al,%al
 8072dc7:	74 07                	je     8072dd0 <_ZN7XML_ZMQ14get_zmqpatternEv+0x126>
 8072dc9:	b8 08 00 00 00       	mov    $0x8,%eax
 8072dce:	eb 3c                	jmp    8072e0c <_ZN7XML_ZMQ14get_zmqpatternEv+0x162>
 8072dd0:	8b 45 08             	mov    0x8(%ebp),%eax
 8072dd3:	89 44 24 04          	mov    %eax,0x4(%esp)
 8072dd7:	c7 04 24 ad 5f 09 08 	movl   $0x8095fad,(%esp)
 8072dde:	e8 64 11 00 00       	call   8073f47 <_ZSteqIcSt11char_traitsIcESaIcEEbPKT_RKSbIS3_T0_T1_E>
 8072de3:	84 c0                	test   %al,%al
 8072de5:	74 07                	je     8072dee <_ZN7XML_ZMQ14get_zmqpatternEv+0x144>
 8072de7:	b8 09 00 00 00       	mov    $0x9,%eax
 8072dec:	eb 1e                	jmp    8072e0c <_ZN7XML_ZMQ14get_zmqpatternEv+0x162>
 8072dee:	8b 45 08             	mov    0x8(%ebp),%eax
 8072df1:	89 44 24 04          	mov    %eax,0x4(%esp)
 8072df5:	c7 04 24 b2 5f 09 08 	movl   $0x8095fb2,(%esp)
 8072dfc:	e8 46 11 00 00       	call   8073f47 <_ZSteqIcSt11char_traitsIcESaIcEEbPKT_RKSbIS3_T0_T1_E>
 8072e01:	84 c0                	test   %al,%al
 8072e03:	74 07                	je     8072e0c <_ZN7XML_ZMQ14get_zmqpatternEv+0x162>
 8072e05:	b8 0a 00 00 00       	mov    $0xa,%eax
 8072e0a:	eb 00                	jmp    8072e0c <_ZN7XML_ZMQ14get_zmqpatternEv+0x162>
 8072e0c:	c9                   	leave  
 8072e0d:	c3                   	ret    

08072e0e <_ZN7XML_ZMQ19get_zmqsocketactionEv>:
 8072e0e:	55                   	push   %ebp
 8072e0f:	89 e5                	mov    %esp,%ebp
 8072e11:	8b 45 08             	mov    0x8(%ebp),%eax
 8072e14:	83 c0 04             	add    $0x4,%eax
 8072e17:	5d                   	pop    %ebp
 8072e18:	c3                   	ret    
 8072e19:	90                   	nop    

08072e1a <_ZN7XML_ZMQ17get_zmqsocketaddrEv>:
 8072e1a:	55                   	push   %ebp
 8072e1b:	89 e5                	mov    %esp,%ebp
 8072e1d:	8b 45 08             	mov    0x8(%ebp),%eax
 8072e20:	83 c0 08             	add    $0x8,%eax
 8072e23:	5d                   	pop    %ebp
 8072e24:	c3                   	ret    
 8072e25:	90                   	nop    

08072e26 <_ZN11XML_CaptureD1Ev>:
 8072e26:	55                   	push   %ebp
 8072e27:	89 e5                	mov    %esp,%ebp
 8072e29:	83 ec 18             	sub    $0x18,%esp
 8072e2c:	8b 45 08             	mov    0x8(%ebp),%eax
 8072e2f:	89 04 24             	mov    %eax,(%esp)
 8072e32:	e8 43 11 00 00       	call   8073f7a <_ZNSt5dequeI7XML_ZMQSaIS0_EED1Ev>
 8072e37:	c9                   	leave  
 8072e38:	c3                   	ret    
 8072e39:	90                   	nop    

08072e3a <_ZN20XML_CaptureNetPacketD1Ev>:
 8072e3a:	55                   	push   %ebp
 8072e3b:	89 e5                	mov    %esp,%ebp
 8072e3d:	83 ec 18             	sub    $0x18,%esp
 8072e40:	8b 45 08             	mov    0x8(%ebp),%eax
 8072e43:	89 04 24             	mov    %eax,(%esp)
 8072e46:	e8 2f 11 00 00       	call   8073f7a <_ZNSt5dequeI7XML_ZMQSaIS0_EED1Ev>
 8072e4b:	c9                   	leave  
 8072e4c:	c3                   	ret    
 8072e4d:	90                   	nop    

08072e4e <_ZN20XML_CaptureNetPacket12get_zmqdequeEv>:
 8072e4e:	55                   	push   %ebp
 8072e4f:	89 e5                	mov    %esp,%ebp
 8072e51:	8b 45 08             	mov    0x8(%ebp),%eax
 8072e54:	5d                   	pop    %ebp
 8072e55:	c3                   	ret    

08072e56 <_ZN19XML_HandleNetPacketD1Ev>:
 8072e56:	55                   	push   %ebp
 8072e57:	89 e5                	mov    %esp,%ebp
 8072e59:	83 ec 18             	sub    $0x18,%esp
 8072e5c:	8b 45 08             	mov    0x8(%ebp),%eax
 8072e5f:	89 04 24             	mov    %eax,(%esp)
 8072e62:	e8 13 11 00 00       	call   8073f7a <_ZNSt5dequeI7XML_ZMQSaIS0_EED1Ev>
 8072e67:	c9                   	leave  
 8072e68:	c3                   	ret    
 8072e69:	90                   	nop    

08072e6a <_ZN19XML_HandleNetPacket12get_zmqdequeEv>:
 8072e6a:	55                   	push   %ebp
 8072e6b:	89 e5                	mov    %esp,%ebp
 8072e6d:	8b 45 08             	mov    0x8(%ebp),%eax
 8072e70:	5d                   	pop    %ebp
 8072e71:	c3                   	ret    

08072e72 <_ZN9XML_ParseD1Ev>:
 8072e72:	55                   	push   %ebp
 8072e73:	89 e5                	mov    %esp,%ebp
 8072e75:	83 ec 18             	sub    $0x18,%esp
 8072e78:	8b 45 08             	mov    0x8(%ebp),%eax
 8072e7b:	89 04 24             	mov    %eax,(%esp)
 8072e7e:	e8 f7 10 00 00       	call   8073f7a <_ZNSt5dequeI7XML_ZMQSaIS0_EED1Ev>
 8072e83:	c9                   	leave  
 8072e84:	c3                   	ret    
 8072e85:	90                   	nop    

08072e86 <_ZN15XML_Lua_RoutineD1Ev>:
 8072e86:	55                   	push   %ebp
 8072e87:	89 e5                	mov    %esp,%ebp
 8072e89:	83 ec 18             	sub    $0x18,%esp
 8072e8c:	8b 45 08             	mov    0x8(%ebp),%eax
 8072e8f:	89 04 24             	mov    %eax,(%esp)
 8072e92:	e8 e3 10 00 00       	call   8073f7a <_ZNSt5dequeI7XML_ZMQSaIS0_EED1Ev>
 8072e97:	c9                   	leave  
 8072e98:	c3                   	ret    
 8072e99:	90                   	nop    

08072e9a <_ZN7XML_LogC1Ev>:
 8072e9a:	55                   	push   %ebp
 8072e9b:	89 e5                	mov    %esp,%ebp
 8072e9d:	83 ec 18             	sub    $0x18,%esp
 8072ea0:	8b 45 08             	mov    0x8(%ebp),%eax
 8072ea3:	89 04 24             	mov    %eax,(%esp)
 8072ea6:	e8 bb 10 00 00       	call   8073f66 <_ZNSt5dequeI7XML_ZMQSaIS0_EEC1Ev>
 8072eab:	c9                   	leave  
 8072eac:	c3                   	ret    
 8072ead:	90                   	nop    

08072eae <_ZN7XML_LogD1Ev>:
 8072eae:	55                   	push   %ebp
 8072eaf:	89 e5                	mov    %esp,%ebp
 8072eb1:	83 ec 18             	sub    $0x18,%esp
 8072eb4:	8b 45 08             	mov    0x8(%ebp),%eax
 8072eb7:	89 04 24             	mov    %eax,(%esp)
 8072eba:	e8 bb 10 00 00       	call   8073f7a <_ZNSt5dequeI7XML_ZMQSaIS0_EED1Ev>
 8072ebf:	c9                   	leave  
 8072ec0:	c3                   	ret    
 8072ec1:	90                   	nop    

08072ec2 <_ZN7XML_Log12get_zmqdequeEv>:
 8072ec2:	55                   	push   %ebp
 8072ec3:	89 e5                	mov    %esp,%ebp
 8072ec5:	8b 45 08             	mov    0x8(%ebp),%eax
 8072ec8:	5d                   	pop    %ebp
 8072ec9:	c3                   	ret    

08072eca <_ZNSt3mapIiSsSt4lessIiESaISt4pairIKiSsEEED1Ev>:
 8072eca:	55                   	push   %ebp
 8072ecb:	89 e5                	mov    %esp,%ebp
 8072ecd:	83 ec 18             	sub    $0x18,%esp
 8072ed0:	8b 45 08             	mov    0x8(%ebp),%eax
 8072ed3:	89 04 24             	mov    %eax,(%esp)
 8072ed6:	e8 a5 11 00 00       	call   8074080 <_ZNSt8_Rb_treeIiSt4pairIKiSsESt10_Select1stIS2_ESt4lessIiESaIS2_EED1Ev>
 8072edb:	c9                   	leave  
 8072edc:	c3                   	ret    
 8072edd:	90                   	nop    

08072ede <_ZN17XML_ListeningItemD1Ev>:
 8072ede:	55                   	push   %ebp
 8072edf:	89 e5                	mov    %esp,%ebp
 8072ee1:	53                   	push   %ebx
 8072ee2:	83 ec 14             	sub    $0x14,%esp
 8072ee5:	8b 45 08             	mov    0x8(%ebp),%eax
 8072ee8:	05 e8 00 00 00       	add    $0xe8,%eax
 8072eed:	89 04 24             	mov    %eax,(%esp)
 8072ef0:	e8 d5 ff ff ff       	call   8072eca <_ZNSt3mapIiSsSt4lessIiESaISt4pairIKiSsEEED1Ev>
 8072ef5:	8b 45 08             	mov    0x8(%ebp),%eax
 8072ef8:	05 dc 00 00 00       	add    $0xdc,%eax
 8072efd:	89 04 24             	mov    %eax,(%esp)
 8072f00:	e8 0f 11 00 00       	call   8074014 <_ZNSt6vectorISsSaISsEED1Ev>
 8072f05:	8b 45 08             	mov    0x8(%ebp),%eax
 8072f08:	05 d0 00 00 00       	add    $0xd0,%eax
 8072f0d:	89 04 24             	mov    %eax,(%esp)
 8072f10:	e8 ff 10 00 00       	call   8074014 <_ZNSt6vectorISsSaISsEED1Ev>
 8072f15:	8b 45 08             	mov    0x8(%ebp),%eax
 8072f18:	05 a8 00 00 00       	add    $0xa8,%eax
 8072f1d:	89 04 24             	mov    %eax,(%esp)
 8072f20:	e8 31 ff ff ff       	call   8072e56 <_ZN19XML_HandleNetPacketD1Ev>
 8072f25:	8b 45 08             	mov    0x8(%ebp),%eax
 8072f28:	83 e8 80             	sub    $0xffffff80,%eax
 8072f2b:	89 04 24             	mov    %eax,(%esp)
 8072f2e:	e8 07 ff ff ff       	call   8072e3a <_ZN20XML_CaptureNetPacketD1Ev>
 8072f33:	8b 45 08             	mov    0x8(%ebp),%eax
 8072f36:	83 c0 58             	add    $0x58,%eax
 8072f39:	89 04 24             	mov    %eax,(%esp)
 8072f3c:	e8 45 ff ff ff       	call   8072e86 <_ZN15XML_Lua_RoutineD1Ev>
 8072f41:	8b 45 08             	mov    0x8(%ebp),%eax
 8072f44:	83 c0 30             	add    $0x30,%eax
 8072f47:	89 04 24             	mov    %eax,(%esp)
 8072f4a:	e8 23 ff ff ff       	call   8072e72 <_ZN9XML_ParseD1Ev>
 8072f4f:	8b 45 08             	mov    0x8(%ebp),%eax
 8072f52:	83 c0 08             	add    $0x8,%eax
 8072f55:	89 04 24             	mov    %eax,(%esp)
 8072f58:	e8 c9 fe ff ff       	call   8072e26 <_ZN11XML_CaptureD1Ev>
 8072f5d:	8b 45 08             	mov    0x8(%ebp),%eax
 8072f60:	83 c0 04             	add    $0x4,%eax
 8072f63:	89 04 24             	mov    %eax,(%esp)
 8072f66:	e8 f5 ea ff ff       	call   8071a60 <_ZNSsD1Ev@plt>
 8072f6b:	e9 9e 00 00 00       	jmp    807300e <_ZN17XML_ListeningItemD1Ev+0x130>
 8072f70:	89 c3                	mov    %eax,%ebx
 8072f72:	8b 45 08             	mov    0x8(%ebp),%eax
 8072f75:	05 dc 00 00 00       	add    $0xdc,%eax
 8072f7a:	89 04 24             	mov    %eax,(%esp)
 8072f7d:	e8 92 10 00 00       	call   8074014 <_ZNSt6vectorISsSaISsEED1Ev>
 8072f82:	eb 02                	jmp    8072f86 <_ZN17XML_ListeningItemD1Ev+0xa8>
 8072f84:	89 c3                	mov    %eax,%ebx
 8072f86:	8b 45 08             	mov    0x8(%ebp),%eax
 8072f89:	05 d0 00 00 00       	add    $0xd0,%eax
 8072f8e:	89 04 24             	mov    %eax,(%esp)
 8072f91:	e8 7e 10 00 00       	call   8074014 <_ZNSt6vectorISsSaISsEED1Ev>
 8072f96:	eb 02                	jmp    8072f9a <_ZN17XML_ListeningItemD1Ev+0xbc>
 8072f98:	89 c3                	mov    %eax,%ebx
 8072f9a:	8b 45 08             	mov    0x8(%ebp),%eax
 8072f9d:	05 a8 00 00 00       	add    $0xa8,%eax
 8072fa2:	89 04 24             	mov    %eax,(%esp)
 8072fa5:	e8 ac fe ff ff       	call   8072e56 <_ZN19XML_HandleNetPacketD1Ev>
 8072faa:	eb 02                	jmp    8072fae <_ZN17XML_ListeningItemD1Ev+0xd0>
 8072fac:	89 c3                	mov    %eax,%ebx
 8072fae:	8b 45 08             	mov    0x8(%ebp),%eax
 8072fb1:	83 e8 80             	sub    $0xffffff80,%eax
 8072fb4:	89 04 24             	mov    %eax,(%esp)
 8072fb7:	e8 7e fe ff ff       	call   8072e3a <_ZN20XML_CaptureNetPacketD1Ev>
 8072fbc:	eb 02                	jmp    8072fc0 <_ZN17XML_ListeningItemD1Ev+0xe2>
 8072fbe:	89 c3                	mov    %eax,%ebx
 8072fc0:	8b 45 08             	mov    0x8(%ebp),%eax
 8072fc3:	83 c0 58             	add    $0x58,%eax
 8072fc6:	89 04 24             	mov    %eax,(%esp)
 8072fc9:	e8 b8 fe ff ff       	call   8072e86 <_ZN15XML_Lua_RoutineD1Ev>
 8072fce:	eb 02                	jmp    8072fd2 <_ZN17XML_ListeningItemD1Ev+0xf4>
 8072fd0:	89 c3                	mov    %eax,%ebx
 8072fd2:	8b 45 08             	mov    0x8(%ebp),%eax
 8072fd5:	83 c0 30             	add    $0x30,%eax
 8072fd8:	89 04 24             	mov    %eax,(%esp)
 8072fdb:	e8 92 fe ff ff       	call   8072e72 <_ZN9XML_ParseD1Ev>
 8072fe0:	eb 02                	jmp    8072fe4 <_ZN17XML_ListeningItemD1Ev+0x106>
 8072fe2:	89 c3                	mov    %eax,%ebx
 8072fe4:	8b 45 08             	mov    0x8(%ebp),%eax
 8072fe7:	83 c0 08             	add    $0x8,%eax
 8072fea:	89 04 24             	mov    %eax,(%esp)
 8072fed:	e8 34 fe ff ff       	call   8072e26 <_ZN11XML_CaptureD1Ev>
 8072ff2:	eb 02                	jmp    8072ff6 <_ZN17XML_ListeningItemD1Ev+0x118>
 8072ff4:	89 c3                	mov    %eax,%ebx
 8072ff6:	8b 45 08             	mov    0x8(%ebp),%eax
 8072ff9:	83 c0 04             	add    $0x4,%eax
 8072ffc:	89 04 24             	mov    %eax,(%esp)
 8072fff:	e8 5c ea ff ff       	call   8071a60 <_ZNSsD1Ev@plt>
 8073004:	89 d8                	mov    %ebx,%eax
 8073006:	89 04 24             	mov    %eax,(%esp)
 8073009:	e8 42 eb ff ff       	call   8071b50 <_Unwind_Resume@plt>
 807300e:	83 c4 14             	add    $0x14,%esp
 8073011:	5b                   	pop    %ebx
 8073012:	5d                   	pop    %ebp
 8073013:	c3                   	ret    

08073014 <_ZN17XML_ListeningItem10get_filterEv>:
 8073014:	55                   	push   %ebp
 8073015:	89 e5                	mov    %esp,%ebp
 8073017:	8b 45 08             	mov    0x8(%ebp),%eax
 807301a:	83 c0 04             	add    $0x4,%eax
 807301d:	5d                   	pop    %ebp
 807301e:	c3                   	ret    
 807301f:	90                   	nop    

08073020 <_ZN17XML_ListeningItem22get_capture_net_packetEv>:
 8073020:	55                   	push   %ebp
 8073021:	89 e5                	mov    %esp,%ebp
 8073023:	8b 45 08             	mov    0x8(%ebp),%eax
 8073026:	83 e8 80             	sub    $0xffffff80,%eax
 8073029:	5d                   	pop    %ebp
 807302a:	c3                   	ret    
 807302b:	90                   	nop    

0807302c <_ZN17XML_ListeningItem21get_handle_net_packetEv>:
 807302c:	55                   	push   %ebp
 807302d:	89 e5                	mov    %esp,%ebp
 807302f:	8b 45 08             	mov    0x8(%ebp),%eax
 8073032:	05 a8 00 00 00       	add    $0xa8,%eax
 8073037:	5d                   	pop    %ebp
 8073038:	c3                   	ret    
 8073039:	90                   	nop    

0807303a <_ZNSt4pairIKiSsED1Ev>:
 807303a:	55                   	push   %ebp
 807303b:	89 e5                	mov    %esp,%ebp
 807303d:	83 ec 18             	sub    $0x18,%esp
 8073040:	8b 45 08             	mov    0x8(%ebp),%eax
 8073043:	83 c0 04             	add    $0x4,%eax
 8073046:	89 04 24             	mov    %eax,(%esp)
 8073049:	e8 12 ea ff ff       	call   8071a60 <_ZNSsD1Ev@plt>
 807304e:	c9                   	leave  
 807304f:	c3                   	ret    

08073050 <_ZN3zmq7error_tC1Ev>:
 8073050:	55                   	push   %ebp
 8073051:	89 e5                	mov    %esp,%ebp
 8073053:	53                   	push   %ebx
 8073054:	83 ec 14             	sub    $0x14,%esp
 8073057:	8b 45 08             	mov    0x8(%ebp),%eax
 807305a:	89 04 24             	mov    %eax,(%esp)
 807305d:	e8 70 fb ff ff       	call   8072bd2 <_ZNSt9exceptionC1Ev>
 8073062:	8b 45 08             	mov    0x8(%ebp),%eax
 8073065:	c7 00 90 62 09 08    	movl   $0x8096290,(%eax)
 807306b:	e8 00 e9 ff ff       	call   8071970 <zmq_errno@plt>
 8073070:	8b 55 08             	mov    0x8(%ebp),%edx
 8073073:	89 42 04             	mov    %eax,0x4(%edx)
 8073076:	eb 17                	jmp    807308f <_ZN3zmq7error_tC1Ev+0x3f>
 8073078:	89 c3                	mov    %eax,%ebx
 807307a:	8b 45 08             	mov    0x8(%ebp),%eax
 807307d:	89 04 24             	mov    %eax,(%esp)
 8073080:	e8 6b eb ff ff       	call   8071bf0 <_ZNSt9exceptionD2Ev@plt>
 8073085:	89 d8                	mov    %ebx,%eax
 8073087:	89 04 24             	mov    %eax,(%esp)
 807308a:	e8 c1 ea ff ff       	call   8071b50 <_Unwind_Resume@plt>
 807308f:	83 c4 14             	add    $0x14,%esp
 8073092:	5b                   	pop    %ebx
 8073093:	5d                   	pop    %ebp
 8073094:	c3                   	ret    
 8073095:	90                   	nop    

08073096 <_ZNK3zmq7error_t4whatEv>:
 8073096:	55                   	push   %ebp
 8073097:	89 e5                	mov    %esp,%ebp
 8073099:	83 ec 18             	sub    $0x18,%esp
 807309c:	8b 45 08             	mov    0x8(%ebp),%eax
 807309f:	8b 40 04             	mov    0x4(%eax),%eax
 80730a2:	89 04 24             	mov    %eax,(%esp)
 80730a5:	e8 56 e4 ff ff       	call   8071500 <zmq_strerror@plt>
 80730aa:	eb 15                	jmp    80730c1 <_ZNK3zmq7error_t4whatEv+0x2b>
 80730ac:	83 fa ff             	cmp    $0xffffffff,%edx
 80730af:	74 08                	je     80730b9 <_ZNK3zmq7error_t4whatEv+0x23>
 80730b1:	89 04 24             	mov    %eax,(%esp)
 80730b4:	e8 97 ea ff ff       	call   8071b50 <_Unwind_Resume@plt>
 80730b9:	89 04 24             	mov    %eax,(%esp)
 80730bc:	e8 7f e8 ff ff       	call   8071940 <__cxa_call_unexpected@plt>
 80730c1:	c9                   	leave  
 80730c2:	c3                   	ret    
 80730c3:	90                   	nop    

080730c4 <_ZN3zmq9context_tC1Ei>:
 80730c4:	55                   	push   %ebp
 80730c5:	89 e5                	mov    %esp,%ebp
 80730c7:	56                   	push   %esi
 80730c8:	53                   	push   %ebx
 80730c9:	83 ec 10             	sub    $0x10,%esp
 80730cc:	8b 45 0c             	mov    0xc(%ebp),%eax
 80730cf:	89 04 24             	mov    %eax,(%esp)
 80730d2:	e8 e9 ea ff ff       	call   8071bc0 <zmq_init@plt>
 80730d7:	8b 55 08             	mov    0x8(%ebp),%edx
 80730da:	89 02                	mov    %eax,(%edx)
 80730dc:	8b 45 08             	mov    0x8(%ebp),%eax
 80730df:	8b 00                	mov    (%eax),%eax
 80730e1:	85 c0                	test   %eax,%eax
 80730e3:	75 42                	jne    8073127 <_ZN3zmq9context_tC1Ei+0x63>
 80730e5:	c7 04 24 08 00 00 00 	movl   $0x8,(%esp)
 80730ec:	e8 ef e4 ff ff       	call   80715e0 <__cxa_allocate_exception@plt>
 80730f1:	89 c3                	mov    %eax,%ebx
 80730f3:	89 1c 24             	mov    %ebx,(%esp)
 80730f6:	e8 55 ff ff ff       	call   8073050 <_ZN3zmq7error_tC1Ev>
 80730fb:	c7 44 24 08 90 d5 07 	movl   $0x807d590,0x8(%esp)
 8073102:	08 
 8073103:	c7 44 24 04 c4 62 09 	movl   $0x80962c4,0x4(%esp)
 807310a:	08 
 807310b:	89 1c 24             	mov    %ebx,(%esp)
 807310e:	e8 0d ea ff ff       	call   8071b20 <__cxa_throw@plt>
 8073113:	89 c6                	mov    %eax,%esi
 8073115:	89 1c 24             	mov    %ebx,(%esp)
 8073118:	e8 13 e6 ff ff       	call   8071730 <__cxa_free_exception@plt>
 807311d:	89 f0                	mov    %esi,%eax
 807311f:	89 04 24             	mov    %eax,(%esp)
 8073122:	e8 29 ea ff ff       	call   8071b50 <_Unwind_Resume@plt>
 8073127:	83 c4 10             	add    $0x10,%esp
 807312a:	5b                   	pop    %ebx
 807312b:	5e                   	pop    %esi
 807312c:	5d                   	pop    %ebp
 807312d:	c3                   	ret    

0807312e <_ZN3zmq9context_tD1Ev>:
 807312e:	55                   	push   %ebp
 807312f:	89 e5                	mov    %esp,%ebp
 8073131:	83 ec 18             	sub    $0x18,%esp
 8073134:	8b 45 08             	mov    0x8(%ebp),%eax
 8073137:	89 04 24             	mov    %eax,(%esp)
 807313a:	e8 03 00 00 00       	call   8073142 <_ZN3zmq9context_t5closeEv>
 807313f:	c9                   	leave  
 8073140:	c3                   	ret    
 8073141:	90                   	nop    

08073142 <_ZN3zmq9context_t5closeEv>:
 8073142:	55                   	push   %ebp
 8073143:	89 e5                	mov    %esp,%ebp
 8073145:	83 ec 28             	sub    $0x28,%esp
 8073148:	8b 45 08             	mov    0x8(%ebp),%eax
 807314b:	8b 00                	mov    (%eax),%eax
 807314d:	85 c0                	test   %eax,%eax
 807314f:	75 02                	jne    8073153 <_ZN3zmq9context_t5closeEv+0x11>
 8073151:	eb 43                	jmp    8073196 <_ZN3zmq9context_t5closeEv+0x54>
 8073153:	8b 45 08             	mov    0x8(%ebp),%eax
 8073156:	8b 00                	mov    (%eax),%eax
 8073158:	89 04 24             	mov    %eax,(%esp)
 807315b:	e8 70 e5 ff ff       	call   80716d0 <zmq_term@plt>
 8073160:	89 45 f4             	mov    %eax,0xfffffff4(%ebp)
 8073163:	83 7d f4 00          	cmpl   $0x0,0xfffffff4(%ebp)
 8073167:	74 24                	je     807318d <_ZN3zmq9context_t5closeEv+0x4b>
 8073169:	c7 44 24 0c 53 62 09 	movl   $0x8096253,0xc(%esp)
 8073170:	08 
 8073171:	c7 44 24 08 0c 01 00 	movl   $0x10c,0x8(%esp)
 8073178:	00 
 8073179:	c7 44 24 04 b7 5f 09 	movl   $0x8095fb7,0x4(%esp)
 8073180:	08 
 8073181:	c7 04 24 d2 5f 09 08 	movl   $0x8095fd2,(%esp)
 8073188:	e8 c3 ea ff ff       	call   8071c50 <__assert_fail@plt>
 807318d:	8b 45 08             	mov    0x8(%ebp),%eax
 8073190:	c7 00 00 00 00 00    	movl   $0x0,(%eax)
 8073196:	c9                   	leave  
 8073197:	c3                   	ret    

08073198 <_ZN3zmq8socket_tD1Ev>:
 8073198:	55                   	push   %ebp
 8073199:	89 e5                	mov    %esp,%ebp
 807319b:	83 ec 18             	sub    $0x18,%esp
 807319e:	8b 45 08             	mov    0x8(%ebp),%eax
 80731a1:	89 04 24             	mov    %eax,(%esp)
 80731a4:	e8 03 00 00 00       	call   80731ac <_ZN3zmq8socket_t5closeEv>
 80731a9:	c9                   	leave  
 80731aa:	c3                   	ret    
 80731ab:	90                   	nop    

080731ac <_ZN3zmq8socket_t5closeEv>:
 80731ac:	55                   	push   %ebp
 80731ad:	89 e5                	mov    %esp,%ebp
 80731af:	83 ec 28             	sub    $0x28,%esp
 80731b2:	8b 45 08             	mov    0x8(%ebp),%eax
 80731b5:	8b 00                	mov    (%eax),%eax
 80731b7:	85 c0                	test   %eax,%eax
 80731b9:	75 02                	jne    80731bd <_ZN3zmq8socket_t5closeEv+0x11>
 80731bb:	eb 43                	jmp    8073200 <_ZN3zmq8socket_t5closeEv+0x54>
 80731bd:	8b 45 08             	mov    0x8(%ebp),%eax
 80731c0:	8b 00                	mov    (%eax),%eax
 80731c2:	89 04 24             	mov    %eax,(%esp)
 80731c5:	e8 36 e8 ff ff       	call   8071a00 <zmq_close@plt>
 80731ca:	89 45 f4             	mov    %eax,0xfffffff4(%ebp)
 80731cd:	83 7d f4 00          	cmpl   $0x0,0xfffffff4(%ebp)
 80731d1:	74 24                	je     80731f7 <_ZN3zmq8socket_t5closeEv+0x4b>
 80731d3:	c7 44 24 0c 2c 62 09 	movl   $0x809622c,0xc(%esp)
 80731da:	08 
 80731db:	c7 44 24 08 47 01 00 	movl   $0x147,0x8(%esp)
 80731e2:	00 
 80731e3:	c7 44 24 04 b7 5f 09 	movl   $0x8095fb7,0x4(%esp)
 80731ea:	08 
 80731eb:	c7 04 24 d2 5f 09 08 	movl   $0x8095fd2,(%esp)
 80731f2:	e8 59 ea ff ff       	call   8071c50 <__assert_fail@plt>
 80731f7:	8b 45 08             	mov    0x8(%ebp),%eax
 80731fa:	c7 00 00 00 00 00    	movl   $0x0,(%eax)
 8073200:	c9                   	leave  
 8073201:	c3                   	ret    

08073202 <_ZN7ZMQItemC1Ev>:
 8073202:	55                   	push   %ebp
 8073203:	89 e5                	mov    %esp,%ebp
 8073205:	53                   	push   %ebx
 8073206:	83 ec 24             	sub    $0x24,%esp
 8073209:	8b 45 08             	mov    0x8(%ebp),%eax
 807320c:	c7 00 ff ff ff ff    	movl   $0xffffffff,(%eax)
 8073212:	8d 45 f6             	lea    0xfffffff6(%ebp),%eax
 8073215:	89 04 24             	mov    %eax,(%esp)
 8073218:	e8 43 e9 ff ff       	call   8071b60 <_ZNSaIcEC1Ev@plt>
 807321d:	8b 45 08             	mov    0x8(%ebp),%eax
 8073220:	8d 50 04             	lea    0x4(%eax),%edx
 8073223:	8d 45 f6             	lea    0xfffffff6(%ebp),%eax
 8073226:	89 44 24 08          	mov    %eax,0x8(%esp)
 807322a:	c7 44 24 04 da 5f 09 	movl   $0x8095fda,0x4(%esp)
 8073231:	08 
 8073232:	89 14 24             	mov    %edx,(%esp)
 8073235:	e8 a6 e6 ff ff       	call   80718e0 <_ZNSsC1EPKcRKSaIcE@plt>
 807323a:	8d 45 f6             	lea    0xfffffff6(%ebp),%eax
 807323d:	89 04 24             	mov    %eax,(%esp)
 8073240:	e8 4b e6 ff ff       	call   8071890 <_ZNSaIcED1Ev@plt>
 8073245:	8d 45 f7             	lea    0xfffffff7(%ebp),%eax
 8073248:	89 04 24             	mov    %eax,(%esp)
 807324b:	e8 10 e9 ff ff       	call   8071b60 <_ZNSaIcEC1Ev@plt>
 8073250:	8b 45 08             	mov    0x8(%ebp),%eax
 8073253:	8d 50 08             	lea    0x8(%eax),%edx
 8073256:	8d 45 f7             	lea    0xfffffff7(%ebp),%eax
 8073259:	89 44 24 08          	mov    %eax,0x8(%esp)
 807325d:	c7 44 24 04 da 5f 09 	movl   $0x8095fda,0x4(%esp)
 8073264:	08 
 8073265:	89 14 24             	mov    %edx,(%esp)
 8073268:	e8 73 e6 ff ff       	call   80718e0 <_ZNSsC1EPKcRKSaIcE@plt>
 807326d:	8d 45 f7             	lea    0xfffffff7(%ebp),%eax
 8073270:	89 04 24             	mov    %eax,(%esp)
 8073273:	e8 18 e6 ff ff       	call   8071890 <_ZNSaIcED1Ev@plt>
 8073278:	eb 3c                	jmp    80732b6 <_ZN7ZMQItemC1Ev+0xb4>
 807327a:	89 c3                	mov    %eax,%ebx
 807327c:	8d 45 f6             	lea    0xfffffff6(%ebp),%eax
 807327f:	89 04 24             	mov    %eax,(%esp)
 8073282:	e8 09 e6 ff ff       	call   8071890 <_ZNSaIcED1Ev@plt>
 8073287:	89 d8                	mov    %ebx,%eax
 8073289:	89 04 24             	mov    %eax,(%esp)
 807328c:	e8 bf e8 ff ff       	call   8071b50 <_Unwind_Resume@plt>
 8073291:	89 c3                	mov    %eax,%ebx
 8073293:	8d 45 f7             	lea    0xfffffff7(%ebp),%eax
 8073296:	89 04 24             	mov    %eax,(%esp)
 8073299:	e8 f2 e5 ff ff       	call   8071890 <_ZNSaIcED1Ev@plt>
 807329e:	8b 45 08             	mov    0x8(%ebp),%eax
 80732a1:	83 c0 04             	add    $0x4,%eax
 80732a4:	89 04 24             	mov    %eax,(%esp)
 80732a7:	e8 b4 e7 ff ff       	call   8071a60 <_ZNSsD1Ev@plt>
 80732ac:	89 d8                	mov    %ebx,%eax
 80732ae:	89 04 24             	mov    %eax,(%esp)
 80732b1:	e8 9a e8 ff ff       	call   8071b50 <_Unwind_Resume@plt>
 80732b6:	83 c4 24             	add    $0x24,%esp
 80732b9:	5b                   	pop    %ebx
 80732ba:	5d                   	pop    %ebp
 80732bb:	c3                   	ret    

080732bc <_ZN7ZMQItemD1Ev>:
 80732bc:	55                   	push   %ebp
 80732bd:	89 e5                	mov    %esp,%ebp
 80732bf:	53                   	push   %ebx
 80732c0:	83 ec 14             	sub    $0x14,%esp
 80732c3:	8b 45 08             	mov    0x8(%ebp),%eax
 80732c6:	83 c0 08             	add    $0x8,%eax
 80732c9:	89 04 24             	mov    %eax,(%esp)
 80732cc:	e8 8f e7 ff ff       	call   8071a60 <_ZNSsD1Ev@plt>
 80732d1:	8b 45 08             	mov    0x8(%ebp),%eax
 80732d4:	83 c0 04             	add    $0x4,%eax
 80732d7:	89 04 24             	mov    %eax,(%esp)
 80732da:	e8 81 e7 ff ff       	call   8071a60 <_ZNSsD1Ev@plt>
 80732df:	eb 1a                	jmp    80732fb <_ZN7ZMQItemD1Ev+0x3f>
 80732e1:	89 c3                	mov    %eax,%ebx
 80732e3:	8b 45 08             	mov    0x8(%ebp),%eax
 80732e6:	83 c0 04             	add    $0x4,%eax
 80732e9:	89 04 24             	mov    %eax,(%esp)
 80732ec:	e8 6f e7 ff ff       	call   8071a60 <_ZNSsD1Ev@plt>
 80732f1:	89 d8                	mov    %ebx,%eax
 80732f3:	89 04 24             	mov    %eax,(%esp)
 80732f6:	e8 55 e8 ff ff       	call   8071b50 <_Unwind_Resume@plt>
 80732fb:	83 c4 14             	add    $0x14,%esp
 80732fe:	5b                   	pop    %ebx
 80732ff:	5d                   	pop    %ebp
 8073300:	c3                   	ret    
 8073301:	90                   	nop    

08073302 <_ZN7ZMQItemC1ERKS_>:
 8073302:	55                   	push   %ebp
 8073303:	89 e5                	mov    %esp,%ebp
 8073305:	53                   	push   %ebx
 8073306:	83 ec 14             	sub    $0x14,%esp
 8073309:	8b 45 08             	mov    0x8(%ebp),%eax
 807330c:	83 c0 04             	add    $0x4,%eax
 807330f:	89 04 24             	mov    %eax,(%esp)
 8073312:	e8 b9 e4 ff ff       	call   80717d0 <_ZNSsC1Ev@plt>
 8073317:	8b 45 08             	mov    0x8(%ebp),%eax
 807331a:	83 c0 08             	add    $0x8,%eax
 807331d:	89 04 24             	mov    %eax,(%esp)
 8073320:	e8 ab e4 ff ff       	call   80717d0 <_ZNSsC1Ev@plt>
 8073325:	8b 45 0c             	mov    0xc(%ebp),%eax
 8073328:	8b 10                	mov    (%eax),%edx
 807332a:	8b 45 08             	mov    0x8(%ebp),%eax
 807332d:	89 10                	mov    %edx,(%eax)
 807332f:	8b 45 0c             	mov    0xc(%ebp),%eax
 8073332:	8d 50 04             	lea    0x4(%eax),%edx
 8073335:	8b 45 08             	mov    0x8(%ebp),%eax
 8073338:	83 c0 04             	add    $0x4,%eax
 807333b:	89 54 24 04          	mov    %edx,0x4(%esp)
 807333f:	89 04 24             	mov    %eax,(%esp)
 8073342:	e8 69 e4 ff ff       	call   80717b0 <_ZNSsaSERKSs@plt>
 8073347:	8b 45 0c             	mov    0xc(%ebp),%eax
 807334a:	8d 50 08             	lea    0x8(%eax),%edx
 807334d:	8b 45 08             	mov    0x8(%ebp),%eax
 8073350:	83 c0 08             	add    $0x8,%eax
 8073353:	89 54 24 04          	mov    %edx,0x4(%esp)
 8073357:	89 04 24             	mov    %eax,(%esp)
 807335a:	e8 51 e4 ff ff       	call   80717b0 <_ZNSsaSERKSs@plt>
 807335f:	eb 2c                	jmp    807338d <_ZN7ZMQItemC1ERKS_+0x8b>
 8073361:	89 c3                	mov    %eax,%ebx
 8073363:	8b 45 08             	mov    0x8(%ebp),%eax
 8073366:	83 c0 08             	add    $0x8,%eax
 8073369:	89 04 24             	mov    %eax,(%esp)
 807336c:	e8 ef e6 ff ff       	call   8071a60 <_ZNSsD1Ev@plt>
 8073371:	eb 02                	jmp    8073375 <_ZN7ZMQItemC1ERKS_+0x73>
 8073373:	89 c3                	mov    %eax,%ebx
 8073375:	8b 45 08             	mov    0x8(%ebp),%eax
 8073378:	83 c0 04             	add    $0x4,%eax
 807337b:	89 04 24             	mov    %eax,(%esp)
 807337e:	e8 dd e6 ff ff       	call   8071a60 <_ZNSsD1Ev@plt>
 8073383:	89 d8                	mov    %ebx,%eax
 8073385:	89 04 24             	mov    %eax,(%esp)
 8073388:	e8 c3 e7 ff ff       	call   8071b50 <_Unwind_Resume@plt>
 807338d:	83 c4 14             	add    $0x14,%esp
 8073390:	5b                   	pop    %ebx
 8073391:	5d                   	pop    %ebp
 8073392:	c3                   	ret    
 8073393:	90                   	nop    

08073394 <_ZN7IThreadC1Ev>:
 8073394:	55                   	push   %ebp
 8073395:	89 e5                	mov    %esp,%ebp
 8073397:	5d                   	pop    %ebp
 8073398:	c3                   	ret    
 8073399:	90                   	nop    

0807339a <_ZN7IThreadD1Ev>:
 807339a:	55                   	push   %ebp
 807339b:	89 e5                	mov    %esp,%ebp
 807339d:	5d                   	pop    %ebp
 807339e:	c3                   	ret    
 807339f:	90                   	nop    

080733a0 <_ZN7IThread5StartEPFPvS0_EP10BaseThread>:
 80733a0:	55                   	push   %ebp
 80733a1:	89 e5                	mov    %esp,%ebp
 80733a3:	83 ec 28             	sub    $0x28,%esp
 80733a6:	8b 45 08             	mov    0x8(%ebp),%eax
 80733a9:	8b 55 10             	mov    0x10(%ebp),%edx
 80733ac:	89 10                	mov    %edx,(%eax)
 80733ae:	8b 45 08             	mov    0x8(%ebp),%eax
 80733b1:	8d 50 04             	lea    0x4(%eax),%edx
 80733b4:	8b 45 08             	mov    0x8(%ebp),%eax
 80733b7:	89 44 24 0c          	mov    %eax,0xc(%esp)
 80733bb:	8b 45 0c             	mov    0xc(%ebp),%eax
 80733be:	89 44 24 08          	mov    %eax,0x8(%esp)
 80733c2:	c7 44 24 04 00 00 00 	movl   $0x0,0x4(%esp)
 80733c9:	00 
 80733ca:	89 14 24             	mov    %edx,(%esp)
 80733cd:	e8 2e e4 ff ff       	call   8071800 <pthread_create@plt>
 80733d2:	89 45 f4             	mov    %eax,0xfffffff4(%ebp)
 80733d5:	83 7d f4 00          	cmpl   $0x0,0xfffffff4(%ebp)
 80733d9:	0f 95 c0             	setne  %al
 80733dc:	84 c0                	test   %al,%al
 80733de:	74 2b                	je     807340b <_ZN7IThread5StartEPFPvS0_EP10BaseThread+0x6b>
 80733e0:	c7 44 24 04 db 5f 09 	movl   $0x8095fdb,0x4(%esp)
 80733e7:	08 
 80733e8:	c7 04 24 08 6d 0b 08 	movl   $0x80b6d08,(%esp)
 80733ef:	e8 3c e4 ff ff       	call   8071830 <_ZStlsISt11char_traitsIcEERSt13basic_ostreamIcT_ES5_PKc@plt>
 80733f4:	c7 44 24 04 d0 15 07 	movl   $0x80715d0,0x4(%esp)
 80733fb:	08 
 80733fc:	89 04 24             	mov    %eax,(%esp)
 80733ff:	e8 6c e4 ff ff       	call   8071870 <_ZNSolsEPFRSoS_E@plt>
 8073404:	b8 00 00 00 00       	mov    $0x0,%eax
 8073409:	eb 05                	jmp    8073410 <_ZN7IThread5StartEPFPvS0_EP10BaseThread+0x70>
 807340b:	b8 01 00 00 00       	mov    $0x1,%eax
 8073410:	c9                   	leave  
 8073411:	c3                   	ret    

08073412 <_ZN7IThread4JoinEv>:
 8073412:	55                   	push   %ebp
 8073413:	89 e5                	mov    %esp,%ebp
 8073415:	83 ec 28             	sub    $0x28,%esp
 8073418:	8b 45 08             	mov    0x8(%ebp),%eax
 807341b:	8b 40 04             	mov    0x4(%eax),%eax
 807341e:	8d 55 f0             	lea    0xfffffff0(%ebp),%edx
 8073421:	89 54 24 04          	mov    %edx,0x4(%esp)
 8073425:	89 04 24             	mov    %eax,(%esp)
 8073428:	e8 83 e5 ff ff       	call   80719b0 <pthread_join@plt>
 807342d:	89 45 f4             	mov    %eax,0xfffffff4(%ebp)
 8073430:	83 7d f4 00          	cmpl   $0x0,0xfffffff4(%ebp)
 8073434:	0f 95 c0             	setne  %al
 8073437:	84 c0                	test   %al,%al
 8073439:	74 2b                	je     8073466 <_ZN7IThread4JoinEv+0x54>
 807343b:	c7 44 24 04 f0 5f 09 	movl   $0x8095ff0,0x4(%esp)
 8073442:	08 
 8073443:	c7 04 24 08 6d 0b 08 	movl   $0x80b6d08,(%esp)
 807344a:	e8 e1 e3 ff ff       	call   8071830 <_ZStlsISt11char_traitsIcEERSt13basic_ostreamIcT_ES5_PKc@plt>
 807344f:	c7 44 24 04 d0 15 07 	movl   $0x80715d0,0x4(%esp)
 8073456:	08 
 8073457:	89 04 24             	mov    %eax,(%esp)
 807345a:	e8 11 e4 ff ff       	call   8071870 <_ZNSolsEPFRSoS_E@plt>
 807345f:	b8 00 00 00 00       	mov    $0x0,%eax
 8073464:	eb 0f                	jmp    8073475 <_ZN7IThread4JoinEv+0x63>
 8073466:	b8 01 00 00 00       	mov    $0x1,%eax
 807346b:	eb 08                	jmp    8073475 <_ZN7IThread4JoinEv+0x63>
 807346d:	89 04 24             	mov    %eax,(%esp)
 8073470:	e8 db e6 ff ff       	call   8071b50 <_Unwind_Resume@plt>
 8073475:	c9                   	leave  
 8073476:	c3                   	ret    
 8073477:	90                   	nop    

08073478 <_ZN10BaseThreadC1Ev>:
 8073478:	55                   	push   %ebp
 8073479:	89 e5                	mov    %esp,%ebp
 807347b:	83 ec 18             	sub    $0x18,%esp
 807347e:	8b 45 08             	mov    0x8(%ebp),%eax
 8073481:	c7 00 78 62 09 08    	movl   $0x8096278,(%eax)
 8073487:	8b 45 08             	mov    0x8(%ebp),%eax
 807348a:	83 c0 04             	add    $0x4,%eax
 807348d:	89 04 24             	mov    %eax,(%esp)
 8073490:	e8 37 0c 00 00       	call   80740cc <_ZNSt6vectorI7ZMQItemSaIS0_EEC1Ev>
 8073495:	8b 45 08             	mov    0x8(%ebp),%eax
 8073498:	83 c0 10             	add    $0x10,%eax
 807349b:	89 04 24             	mov    %eax,(%esp)
 807349e:	e8 f1 fe ff ff       	call   8073394 <_ZN7IThreadC1Ev>
 80734a3:	c9                   	leave  
 80734a4:	c3                   	ret    
 80734a5:	90                   	nop    

080734a6 <_ZN10BaseThreadD1Ev>:
 80734a6:	55                   	push   %ebp
 80734a7:	89 e5                	mov    %esp,%ebp
 80734a9:	83 ec 18             	sub    $0x18,%esp
 80734ac:	8b 45 08             	mov    0x8(%ebp),%eax
 80734af:	c7 00 78 62 09 08    	movl   $0x8096278,(%eax)
 80734b5:	8b 45 08             	mov    0x8(%ebp),%eax
 80734b8:	83 c0 10             	add    $0x10,%eax
 80734bb:	89 04 24             	mov    %eax,(%esp)
 80734be:	e8 d7 fe ff ff       	call   807339a <_ZN7IThreadD1Ev>
 80734c3:	8b 45 08             	mov    0x8(%ebp),%eax
 80734c6:	83 c0 04             	add    $0x4,%eax
 80734c9:	89 04 24             	mov    %eax,(%esp)
 80734cc:	e8 0f 0c 00 00       	call   80740e0 <_ZNSt6vectorI7ZMQItemSaIS0_EED1Ev>
 80734d1:	b8 00 00 00 00       	mov    $0x0,%eax
 80734d6:	85 c0                	test   %eax,%eax
 80734d8:	74 0b                	je     80734e5 <_ZN10BaseThreadD1Ev+0x3f>
 80734da:	8b 45 08             	mov    0x8(%ebp),%eax
 80734dd:	89 04 24             	mov    %eax,(%esp)
 80734e0:	e8 fb e2 ff ff       	call   80717e0 <_ZdlPv@plt>
 80734e5:	c9                   	leave  
 80734e6:	c3                   	ret    
 80734e7:	90                   	nop    

080734e8 <_ZN10BaseThreadD0Ev>:
 80734e8:	55                   	push   %ebp
 80734e9:	89 e5                	mov    %esp,%ebp
 80734eb:	83 ec 18             	sub    $0x18,%esp
 80734ee:	8b 45 08             	mov    0x8(%ebp),%eax
 80734f1:	89 04 24             	mov    %eax,(%esp)
 80734f4:	e8 ad ff ff ff       	call   80734a6 <_ZN10BaseThreadD1Ev>
 80734f9:	8b 45 08             	mov    0x8(%ebp),%eax
 80734fc:	89 04 24             	mov    %eax,(%esp)
 80734ff:	e8 dc e2 ff ff       	call   80717e0 <_ZdlPv@plt>
 8073504:	c9                   	leave  
 8073505:	c3                   	ret    

08073506 <_ZN10BaseThread5StartEv>:
 8073506:	55                   	push   %ebp
 8073507:	89 e5                	mov    %esp,%ebp
 8073509:	83 ec 18             	sub    $0x18,%esp
 807350c:	8b 45 08             	mov    0x8(%ebp),%eax
 807350f:	8d 50 10             	lea    0x10(%eax),%edx
 8073512:	8b 45 08             	mov    0x8(%ebp),%eax
 8073515:	89 44 24 08          	mov    %eax,0x8(%esp)
 8073519:	c7 44 24 04 5f 35 07 	movl   $0x807355f,0x4(%esp)
 8073520:	08 
 8073521:	89 14 24             	mov    %edx,(%esp)
 8073524:	e8 77 fe ff ff       	call   80733a0 <_ZN7IThread5StartEPFPvS0_EP10BaseThread>
 8073529:	c9                   	leave  
 807352a:	c3                   	ret    
 807352b:	90                   	nop    

0807352c <_ZN10BaseThread4JoinEv>:
 807352c:	55                   	push   %ebp
 807352d:	89 e5                	mov    %esp,%ebp
 807352f:	83 ec 18             	sub    $0x18,%esp
 8073532:	8b 45 08             	mov    0x8(%ebp),%eax
 8073535:	83 c0 10             	add    $0x10,%eax
 8073538:	89 04 24             	mov    %eax,(%esp)
 807353b:	e8 d2 fe ff ff       	call   8073412 <_ZN7IThread4JoinEv>
 8073540:	c9                   	leave  
 8073541:	c3                   	ret    

08073542 <_ZN10BaseThread10AddZMQItemE7ZMQItem>:
 8073542:	55                   	push   %ebp
 8073543:	89 e5                	mov    %esp,%ebp
 8073545:	83 ec 18             	sub    $0x18,%esp
 8073548:	8b 45 08             	mov    0x8(%ebp),%eax
 807354b:	8d 50 04             	lea    0x4(%eax),%edx
 807354e:	8b 45 0c             	mov    0xc(%ebp),%eax
 8073551:	89 44 24 04          	mov    %eax,0x4(%esp)
 8073555:	89 14 24             	mov    %edx,(%esp)
 8073558:	e8 db 0b 00 00       	call   8074138 <_ZNSt6vectorI7ZMQItemSaIS0_EE9push_backERKS0_>
 807355d:	c9                   	leave  
 807355e:	c3                   	ret    

0807355f <_ZN10BaseThread10ThreadFuncEPv>:
 807355f:	55                   	push   %ebp
 8073560:	89 e5                	mov    %esp,%ebp
 8073562:	83 ec 28             	sub    $0x28,%esp
 8073565:	8b 45 08             	mov    0x8(%ebp),%eax
 8073568:	89 45 f4             	mov    %eax,0xfffffff4(%ebp)
 807356b:	8b 45 f4             	mov    0xfffffff4(%ebp),%eax
 807356e:	8b 00                	mov    (%eax),%eax
 8073570:	89 04 24             	mov    %eax,(%esp)
 8073573:	e8 08 00 00 00       	call   8073580 <_ZN10BaseThread3RunEv>
 8073578:	b8 00 00 00 00       	mov    $0x0,%eax
 807357d:	c9                   	leave  
 807357e:	c3                   	ret    
 807357f:	90                   	nop    

08073580 <_ZN10BaseThread3RunEv>:
 8073580:	55                   	push   %ebp
 8073581:	89 e5                	mov    %esp,%ebp
 8073583:	83 ec 18             	sub    $0x18,%esp
 8073586:	8b 45 08             	mov    0x8(%ebp),%eax
 8073589:	8b 00                	mov    (%eax),%eax
 807358b:	83 c0 08             	add    $0x8,%eax
 807358e:	8b 00                	mov    (%eax),%eax
 8073590:	8b 55 08             	mov    0x8(%ebp),%edx
 8073593:	89 14 24             	mov    %edx,(%esp)
 8073596:	ff d0                	call   *%eax
 8073598:	c9                   	leave  
 8073599:	c3                   	ret    

0807359a <_ZN3LogC1EPN3zmq9context_tERSt6vectorIiSaIiEE>:
 807359a:	55                   	push   %ebp
 807359b:	89 e5                	mov    %esp,%ebp
 807359d:	53                   	push   %ebx
 807359e:	83 ec 14             	sub    $0x14,%esp
 80735a1:	8b 45 08             	mov    0x8(%ebp),%eax
 80735a4:	89 04 24             	mov    %eax,(%esp)
 80735a7:	e8 cc fe ff ff       	call   8073478 <_ZN10BaseThreadC1Ev>
 80735ac:	8b 45 08             	mov    0x8(%ebp),%eax
 80735af:	c7 00 80 6a 09 08    	movl   $0x8096a80,(%eax)
 80735b5:	8b 45 08             	mov    0x8(%ebp),%eax
 80735b8:	8b 55 0c             	mov    0xc(%ebp),%edx
 80735bb:	89 50 18             	mov    %edx,0x18(%eax)
 80735be:	8b 45 08             	mov    0x8(%ebp),%eax
 80735c1:	8d 50 1c             	lea    0x1c(%eax),%edx
 80735c4:	8b 45 10             	mov    0x10(%ebp),%eax
 80735c7:	89 44 24 04          	mov    %eax,0x4(%esp)
 80735cb:	89 14 24             	mov    %edx,(%esp)
 80735ce:	e8 d9 0b 00 00       	call   80741ac <_ZNSt6vectorIiSaIiEEC1ERKS1_>
 80735d3:	eb 17                	jmp    80735ec <_ZN3LogC1EPN3zmq9context_tERSt6vectorIiSaIiEE+0x52>
 80735d5:	89 c3                	mov    %eax,%ebx
 80735d7:	8b 45 08             	mov    0x8(%ebp),%eax
 80735da:	89 04 24             	mov    %eax,(%esp)
 80735dd:	e8 c4 fe ff ff       	call   80734a6 <_ZN10BaseThreadD1Ev>
 80735e2:	89 d8                	mov    %ebx,%eax
 80735e4:	89 04 24             	mov    %eax,(%esp)
 80735e7:	e8 64 e5 ff ff       	call   8071b50 <_Unwind_Resume@plt>
 80735ec:	83 c4 14             	add    $0x14,%esp
 80735ef:	5b                   	pop    %ebx
 80735f0:	5d                   	pop    %ebp
 80735f1:	c3                   	ret    

080735f2 <_ZN3LogD1Ev>:
 80735f2:	55                   	push   %ebp
 80735f3:	89 e5                	mov    %esp,%ebp
 80735f5:	53                   	push   %ebx
 80735f6:	83 ec 14             	sub    $0x14,%esp
 80735f9:	8b 45 08             	mov    0x8(%ebp),%eax
 80735fc:	c7 00 80 6a 09 08    	movl   $0x8096a80,(%eax)
 8073602:	8b 45 08             	mov    0x8(%ebp),%eax
 8073605:	83 c0 1c             	add    $0x1c,%eax
 8073608:	89 04 24             	mov    %eax,(%esp)
 807360b:	e8 54 0c 00 00       	call   8074264 <_ZNSt6vectorIiSaIiEED1Ev>
 8073610:	8b 45 08             	mov    0x8(%ebp),%eax
 8073613:	89 04 24             	mov    %eax,(%esp)
 8073616:	e8 8b fe ff ff       	call   80734a6 <_ZN10BaseThreadD1Ev>
 807361b:	b8 00 00 00 00       	mov    $0x0,%eax
 8073620:	85 c0                	test   %eax,%eax
 8073622:	74 24                	je     8073648 <_ZN3LogD1Ev+0x56>
 8073624:	8b 45 08             	mov    0x8(%ebp),%eax
 8073627:	89 04 24             	mov    %eax,(%esp)
 807362a:	e8 b1 e1 ff ff       	call   80717e0 <_ZdlPv@plt>
 807362f:	eb 17                	jmp    8073648 <_ZN3LogD1Ev+0x56>
 8073631:	89 c3                	mov    %eax,%ebx
 8073633:	8b 45 08             	mov    0x8(%ebp),%eax
 8073636:	89 04 24             	mov    %eax,(%esp)
 8073639:	e8 68 fe ff ff       	call   80734a6 <_ZN10BaseThreadD1Ev>
 807363e:	89 d8                	mov    %ebx,%eax
 8073640:	89 04 24             	mov    %eax,(%esp)
 8073643:	e8 08 e5 ff ff       	call   8071b50 <_Unwind_Resume@plt>
 8073648:	83 c4 14             	add    $0x14,%esp
 807364b:	5b                   	pop    %ebx
 807364c:	5d                   	pop    %ebp
 807364d:	c3                   	ret    

0807364e <_ZN3LogD0Ev>:
 807364e:	55                   	push   %ebp
 807364f:	89 e5                	mov    %esp,%ebp
 8073651:	83 ec 18             	sub    $0x18,%esp
 8073654:	8b 45 08             	mov    0x8(%ebp),%eax
 8073657:	89 04 24             	mov    %eax,(%esp)
 807365a:	e8 93 ff ff ff       	call   80735f2 <_ZN3LogD1Ev>
 807365f:	8b 45 08             	mov    0x8(%ebp),%eax
 8073662:	89 04 24             	mov    %eax,(%esp)
 8073665:	e8 76 e1 ff ff       	call   80717e0 <_ZdlPv@plt>
 807366a:	c9                   	leave  
 807366b:	c3                   	ret    

0807366c <_ZN16CaptureNetPacketC1EiSsPN3zmq9context_tE>:
 807366c:	55                   	push   %ebp
 807366d:	89 e5                	mov    %esp,%ebp
 807366f:	53                   	push   %ebx
 8073670:	83 ec 14             	sub    $0x14,%esp
 8073673:	8b 45 08             	mov    0x8(%ebp),%eax
 8073676:	89 04 24             	mov    %eax,(%esp)
 8073679:	e8 fa fd ff ff       	call   8073478 <_ZN10BaseThreadC1Ev>
 807367e:	8b 45 08             	mov    0x8(%ebp),%eax
 8073681:	c7 00 70 72 09 08    	movl   $0x8097270,(%eax)
 8073687:	8b 45 08             	mov    0x8(%ebp),%eax
 807368a:	8b 55 14             	mov    0x14(%ebp),%edx
 807368d:	89 50 18             	mov    %edx,0x18(%eax)
 8073690:	8b 45 08             	mov    0x8(%ebp),%eax
 8073693:	8b 55 0c             	mov    0xc(%ebp),%edx
 8073696:	89 50 20             	mov    %edx,0x20(%eax)
 8073699:	8b 45 08             	mov    0x8(%ebp),%eax
 807369c:	83 c0 24             	add    $0x24,%eax
 807369f:	89 04 24             	mov    %eax,(%esp)
 80736a2:	e8 29 e1 ff ff       	call   80717d0 <_ZNSsC1Ev@plt>
 80736a7:	8b 45 08             	mov    0x8(%ebp),%eax
 80736aa:	c7 40 1c 00 00 00 00 	movl   $0x0,0x1c(%eax)
 80736b1:	8b 45 08             	mov    0x8(%ebp),%eax
 80736b4:	8d 50 24             	lea    0x24(%eax),%edx
 80736b7:	8b 45 10             	mov    0x10(%ebp),%eax
 80736ba:	89 44 24 04          	mov    %eax,0x4(%esp)
 80736be:	89 14 24             	mov    %edx,(%esp)
 80736c1:	e8 ea e0 ff ff       	call   80717b0 <_ZNSsaSERKSs@plt>
 80736c6:	eb 29                	jmp    80736f1 <_ZN16CaptureNetPacketC1EiSsPN3zmq9context_tE+0x85>
 80736c8:	89 c3                	mov    %eax,%ebx
 80736ca:	8b 45 08             	mov    0x8(%ebp),%eax
 80736cd:	83 c0 24             	add    $0x24,%eax
 80736d0:	89 04 24             	mov    %eax,(%esp)
 80736d3:	e8 88 e3 ff ff       	call   8071a60 <_ZNSsD1Ev@plt>
 80736d8:	eb 02                	jmp    80736dc <_ZN16CaptureNetPacketC1EiSsPN3zmq9context_tE+0x70>
 80736da:	89 c3                	mov    %eax,%ebx
 80736dc:	8b 45 08             	mov    0x8(%ebp),%eax
 80736df:	89 04 24             	mov    %eax,(%esp)
 80736e2:	e8 bf fd ff ff       	call   80734a6 <_ZN10BaseThreadD1Ev>
 80736e7:	89 d8                	mov    %ebx,%eax
 80736e9:	89 04 24             	mov    %eax,(%esp)
 80736ec:	e8 5f e4 ff ff       	call   8071b50 <_Unwind_Resume@plt>
 80736f1:	83 c4 14             	add    $0x14,%esp
 80736f4:	5b                   	pop    %ebx
 80736f5:	5d                   	pop    %ebp
 80736f6:	c3                   	ret    
 80736f7:	90                   	nop    

080736f8 <_ZN16CaptureNetPacketD1Ev>:
 80736f8:	55                   	push   %ebp
 80736f9:	89 e5                	mov    %esp,%ebp
 80736fb:	53                   	push   %ebx
 80736fc:	83 ec 14             	sub    $0x14,%esp
 80736ff:	8b 45 08             	mov    0x8(%ebp),%eax
 8073702:	c7 00 70 72 09 08    	movl   $0x8097270,(%eax)
 8073708:	8b 45 08             	mov    0x8(%ebp),%eax
 807370b:	8b 40 1c             	mov    0x1c(%eax),%eax
 807370e:	85 c0                	test   %eax,%eax
 8073710:	74 24                	je     8073736 <_ZN16CaptureNetPacketD1Ev+0x3e>
 8073712:	8b 45 08             	mov    0x8(%ebp),%eax
 8073715:	8b 58 1c             	mov    0x1c(%eax),%ebx
 8073718:	85 db                	test   %ebx,%ebx
 807371a:	74 10                	je     807372c <_ZN16CaptureNetPacketD1Ev+0x34>
 807371c:	89 1c 24             	mov    %ebx,(%esp)
 807371f:	e8 74 fa ff ff       	call   8073198 <_ZN3zmq8socket_tD1Ev>
 8073724:	89 1c 24             	mov    %ebx,(%esp)
 8073727:	e8 b4 e0 ff ff       	call   80717e0 <_ZdlPv@plt>
 807372c:	8b 45 08             	mov    0x8(%ebp),%eax
 807372f:	c7 40 1c 00 00 00 00 	movl   $0x0,0x1c(%eax)
 8073736:	8b 45 08             	mov    0x8(%ebp),%eax
 8073739:	83 c0 24             	add    $0x24,%eax
 807373c:	89 04 24             	mov    %eax,(%esp)
 807373f:	e8 1c e3 ff ff       	call   8071a60 <_ZNSsD1Ev@plt>
 8073744:	8b 45 08             	mov    0x8(%ebp),%eax
 8073747:	89 04 24             	mov    %eax,(%esp)
 807374a:	e8 57 fd ff ff       	call   80734a6 <_ZN10BaseThreadD1Ev>
 807374f:	b8 00 00 00 00       	mov    $0x0,%eax
 8073754:	85 c0                	test   %eax,%eax
 8073756:	74 36                	je     807378e <_ZN16CaptureNetPacketD1Ev+0x96>
 8073758:	8b 45 08             	mov    0x8(%ebp),%eax
 807375b:	89 04 24             	mov    %eax,(%esp)
 807375e:	e8 7d e0 ff ff       	call   80717e0 <_ZdlPv@plt>
 8073763:	eb 29                	jmp    807378e <_ZN16CaptureNetPacketD1Ev+0x96>
 8073765:	89 c3                	mov    %eax,%ebx
 8073767:	8b 45 08             	mov    0x8(%ebp),%eax
 807376a:	83 c0 24             	add    $0x24,%eax
 807376d:	89 04 24             	mov    %eax,(%esp)
 8073770:	e8 eb e2 ff ff       	call   8071a60 <_ZNSsD1Ev@plt>
 8073775:	eb 02                	jmp    8073779 <_ZN16CaptureNetPacketD1Ev+0x81>
 8073777:	89 c3                	mov    %eax,%ebx
 8073779:	8b 45 08             	mov    0x8(%ebp),%eax
 807377c:	89 04 24             	mov    %eax,(%esp)
 807377f:	e8 22 fd ff ff       	call   80734a6 <_ZN10BaseThreadD1Ev>
 8073784:	89 d8                	mov    %ebx,%eax
 8073786:	89 04 24             	mov    %eax,(%esp)
 8073789:	e8 c2 e3 ff ff       	call   8071b50 <_Unwind_Resume@plt>
 807378e:	83 c4 14             	add    $0x14,%esp
 8073791:	5b                   	pop    %ebx
 8073792:	5d                   	pop    %ebp
 8073793:	c3                   	ret    

08073794 <_ZN16CaptureNetPacketD0Ev>:
 8073794:	55                   	push   %ebp
 8073795:	89 e5                	mov    %esp,%ebp
 8073797:	83 ec 18             	sub    $0x18,%esp
 807379a:	8b 45 08             	mov    0x8(%ebp),%eax
 807379d:	89 04 24             	mov    %eax,(%esp)
 80737a0:	e8 53 ff ff ff       	call   80736f8 <_ZN16CaptureNetPacketD1Ev>
 80737a5:	8b 45 08             	mov    0x8(%ebp),%eax
 80737a8:	89 04 24             	mov    %eax,(%esp)
 80737ab:	e8 30 e0 ff ff       	call   80717e0 <_ZdlPv@plt>
 80737b0:	c9                   	leave  
 80737b1:	c3                   	ret    

080737b2 <_ZN11XML_CaptureC1ERKS_>:
 80737b2:	55                   	push   %ebp
 80737b3:	89 e5                	mov    %esp,%ebp
 80737b5:	83 ec 18             	sub    $0x18,%esp
 80737b8:	8b 55 0c             	mov    0xc(%ebp),%edx
 80737bb:	8b 45 08             	mov    0x8(%ebp),%eax
 80737be:	89 54 24 04          	mov    %edx,0x4(%esp)
 80737c2:	89 04 24             	mov    %eax,(%esp)
 80737c5:	e8 f2 0a 00 00       	call   80742bc <_ZNSt5dequeI7XML_ZMQSaIS0_EEC1ERKS2_>
 80737ca:	c9                   	leave  
 80737cb:	c3                   	ret    

080737cc <_ZN9XML_ParseC1ERKS_>:
 80737cc:	55                   	push   %ebp
 80737cd:	89 e5                	mov    %esp,%ebp
 80737cf:	83 ec 18             	sub    $0x18,%esp
 80737d2:	8b 55 0c             	mov    0xc(%ebp),%edx
 80737d5:	8b 45 08             	mov    0x8(%ebp),%eax
 80737d8:	89 54 24 04          	mov    %edx,0x4(%esp)
 80737dc:	89 04 24             	mov    %eax,(%esp)
 80737df:	e8 d8 0a 00 00       	call   80742bc <_ZNSt5dequeI7XML_ZMQSaIS0_EEC1ERKS2_>
 80737e4:	c9                   	leave  
 80737e5:	c3                   	ret    

080737e6 <_ZN15XML_Lua_RoutineC1ERKS_>:
 80737e6:	55                   	push   %ebp
 80737e7:	89 e5                	mov    %esp,%ebp
 80737e9:	83 ec 18             	sub    $0x18,%esp
 80737ec:	8b 55 0c             	mov    0xc(%ebp),%edx
 80737ef:	8b 45 08             	mov    0x8(%ebp),%eax
 80737f2:	89 54 24 04          	mov    %edx,0x4(%esp)
 80737f6:	89 04 24             	mov    %eax,(%esp)
 80737f9:	e8 be 0a 00 00       	call   80742bc <_ZNSt5dequeI7XML_ZMQSaIS0_EEC1ERKS2_>
 80737fe:	c9                   	leave  
 80737ff:	c3                   	ret    

08073800 <_ZN20XML_CaptureNetPacketC1ERKS_>:
 8073800:	55                   	push   %ebp
 8073801:	89 e5                	mov    %esp,%ebp
 8073803:	83 ec 18             	sub    $0x18,%esp
 8073806:	8b 55 0c             	mov    0xc(%ebp),%edx
 8073809:	8b 45 08             	mov    0x8(%ebp),%eax
 807380c:	89 54 24 04          	mov    %edx,0x4(%esp)
 8073810:	89 04 24             	mov    %eax,(%esp)
 8073813:	e8 a4 0a 00 00       	call   80742bc <_ZNSt5dequeI7XML_ZMQSaIS0_EEC1ERKS2_>
 8073818:	c9                   	leave  
 8073819:	c3                   	ret    

0807381a <_ZN19XML_HandleNetPacketC1ERKS_>:
 807381a:	55                   	push   %ebp
 807381b:	89 e5                	mov    %esp,%ebp
 807381d:	83 ec 18             	sub    $0x18,%esp
 8073820:	8b 55 0c             	mov    0xc(%ebp),%edx
 8073823:	8b 45 08             	mov    0x8(%ebp),%eax
 8073826:	89 54 24 04          	mov    %edx,0x4(%esp)
 807382a:	89 04 24             	mov    %eax,(%esp)
 807382d:	e8 8a 0a 00 00       	call   80742bc <_ZNSt5dequeI7XML_ZMQSaIS0_EEC1ERKS2_>
 8073832:	c9                   	leave  
 8073833:	c3                   	ret    

08073834 <_ZN17XML_ListeningItemC1ERKS_>:
 8073834:	55                   	push   %ebp
 8073835:	89 e5                	mov    %esp,%ebp
 8073837:	53                   	push   %ebx
 8073838:	83 ec 14             	sub    $0x14,%esp
 807383b:	8b 45 0c             	mov    0xc(%ebp),%eax
 807383e:	8b 10                	mov    (%eax),%edx
 8073840:	8b 45 08             	mov    0x8(%ebp),%eax
 8073843:	89 10                	mov    %edx,(%eax)
 8073845:	8b 45 0c             	mov    0xc(%ebp),%eax
 8073848:	8d 50 04             	lea    0x4(%eax),%edx
 807384b:	8b 45 08             	mov    0x8(%ebp),%eax
 807384e:	83 c0 04             	add    $0x4,%eax
 8073851:	89 54 24 04          	mov    %edx,0x4(%esp)
 8073855:	89 04 24             	mov    %eax,(%esp)
 8073858:	e8 03 de ff ff       	call   8071660 <_ZNSsC1ERKSs@plt>
 807385d:	8b 45 0c             	mov    0xc(%ebp),%eax
 8073860:	8d 50 08             	lea    0x8(%eax),%edx
 8073863:	8b 45 08             	mov    0x8(%ebp),%eax
 8073866:	83 c0 08             	add    $0x8,%eax
 8073869:	89 54 24 04          	mov    %edx,0x4(%esp)
 807386d:	89 04 24             	mov    %eax,(%esp)
 8073870:	e8 3d ff ff ff       	call   80737b2 <_ZN11XML_CaptureC1ERKS_>
 8073875:	8b 45 0c             	mov    0xc(%ebp),%eax
 8073878:	8d 50 30             	lea    0x30(%eax),%edx
 807387b:	8b 45 08             	mov    0x8(%ebp),%eax
 807387e:	83 c0 30             	add    $0x30,%eax
 8073881:	89 54 24 04          	mov    %edx,0x4(%esp)
 8073885:	89 04 24             	mov    %eax,(%esp)
 8073888:	e8 3f ff ff ff       	call   80737cc <_ZN9XML_ParseC1ERKS_>
 807388d:	8b 45 0c             	mov    0xc(%ebp),%eax
 8073890:	8d 50 58             	lea    0x58(%eax),%edx
 8073893:	8b 45 08             	mov    0x8(%ebp),%eax
 8073896:	83 c0 58             	add    $0x58,%eax
 8073899:	89 54 24 04          	mov    %edx,0x4(%esp)
 807389d:	89 04 24             	mov    %eax,(%esp)
 80738a0:	e8 41 ff ff ff       	call   80737e6 <_ZN15XML_Lua_RoutineC1ERKS_>
 80738a5:	8b 45 0c             	mov    0xc(%ebp),%eax
 80738a8:	8d 90 80 00 00 00    	lea    0x80(%eax),%edx
 80738ae:	8b 45 08             	mov    0x8(%ebp),%eax
 80738b1:	83 e8 80             	sub    $0xffffff80,%eax
 80738b4:	89 54 24 04          	mov    %edx,0x4(%esp)
 80738b8:	89 04 24             	mov    %eax,(%esp)
 80738bb:	e8 40 ff ff ff       	call   8073800 <_ZN20XML_CaptureNetPacketC1ERKS_>
 80738c0:	8b 45 0c             	mov    0xc(%ebp),%eax
 80738c3:	8d 90 a8 00 00 00    	lea    0xa8(%eax),%edx
 80738c9:	8b 45 08             	mov    0x8(%ebp),%eax
 80738cc:	05 a8 00 00 00       	add    $0xa8,%eax
 80738d1:	89 54 24 04          	mov    %edx,0x4(%esp)
 80738d5:	89 04 24             	mov    %eax,(%esp)
 80738d8:	e8 3d ff ff ff       	call   807381a <_ZN19XML_HandleNetPacketC1ERKS_>
 80738dd:	8b 45 0c             	mov    0xc(%ebp),%eax
 80738e0:	8d 90 d0 00 00 00    	lea    0xd0(%eax),%edx
 80738e6:	8b 45 08             	mov    0x8(%ebp),%eax
 80738e9:	05 d0 00 00 00       	add    $0xd0,%eax
 80738ee:	89 54 24 04          	mov    %edx,0x4(%esp)
 80738f2:	89 04 24             	mov    %eax,(%esp)
 80738f5:	e8 b0 0a 00 00       	call   80743aa <_ZNSt6vectorISsSaISsEEC1ERKS1_>
 80738fa:	8b 45 0c             	mov    0xc(%ebp),%eax
 80738fd:	8d 90 dc 00 00 00    	lea    0xdc(%eax),%edx
 8073903:	8b 45 08             	mov    0x8(%ebp),%eax
 8073906:	05 dc 00 00 00       	add    $0xdc,%eax
 807390b:	89 54 24 04          	mov    %edx,0x4(%esp)
 807390f:	89 04 24             	mov    %eax,(%esp)
 8073912:	e8 93 0a 00 00       	call   80743aa <_ZNSt6vectorISsSaISsEEC1ERKS1_>
 8073917:	8b 45 0c             	mov    0xc(%ebp),%eax
 807391a:	8d 90 e8 00 00 00    	lea    0xe8(%eax),%edx
 8073920:	8b 45 08             	mov    0x8(%ebp),%eax
 8073923:	05 e8 00 00 00       	add    $0xe8,%eax
 8073928:	89 54 24 04          	mov    %edx,0x4(%esp)
 807392c:	89 04 24             	mov    %eax,(%esp)
 807392f:	e8 2e 0b 00 00       	call   8074462 <_ZNSt3mapIiSsSt4lessIiESaISt4pairIKiSsEEEC1ERKS6_>
 8073934:	e9 9e 00 00 00       	jmp    80739d7 <_ZN17XML_ListeningItemC1ERKS_+0x1a3>
 8073939:	89 c3                	mov    %eax,%ebx
 807393b:	8b 45 08             	mov    0x8(%ebp),%eax
 807393e:	05 dc 00 00 00       	add    $0xdc,%eax
 8073943:	89 04 24             	mov    %eax,(%esp)
 8073946:	e8 c9 06 00 00       	call   8074014 <_ZNSt6vectorISsSaISsEED1Ev>
 807394b:	eb 02                	jmp    807394f <_ZN17XML_ListeningItemC1ERKS_+0x11b>
 807394d:	89 c3                	mov    %eax,%ebx
 807394f:	8b 45 08             	mov    0x8(%ebp),%eax
 8073952:	05 d0 00 00 00       	add    $0xd0,%eax
 8073957:	89 04 24             	mov    %eax,(%esp)
 807395a:	e8 b5 06 00 00       	call   8074014 <_ZNSt6vectorISsSaISsEED1Ev>
 807395f:	eb 02                	jmp    8073963 <_ZN17XML_ListeningItemC1ERKS_+0x12f>
 8073961:	89 c3                	mov    %eax,%ebx
 8073963:	8b 45 08             	mov    0x8(%ebp),%eax
 8073966:	05 a8 00 00 00       	add    $0xa8,%eax
 807396b:	89 04 24             	mov    %eax,(%esp)
 807396e:	e8 e3 f4 ff ff       	call   8072e56 <_ZN19XML_HandleNetPacketD1Ev>
 8073973:	eb 02                	jmp    8073977 <_ZN17XML_ListeningItemC1ERKS_+0x143>
 8073975:	89 c3                	mov    %eax,%ebx
 8073977:	8b 45 08             	mov    0x8(%ebp),%eax
 807397a:	83 e8 80             	sub    $0xffffff80,%eax
 807397d:	89 04 24             	mov    %eax,(%esp)
 8073980:	e8 b5 f4 ff ff       	call   8072e3a <_ZN20XML_CaptureNetPacketD1Ev>
 8073985:	eb 02                	jmp    8073989 <_ZN17XML_ListeningItemC1ERKS_+0x155>
 8073987:	89 c3                	mov    %eax,%ebx
 8073989:	8b 45 08             	mov    0x8(%ebp),%eax
 807398c:	83 c0 58             	add    $0x58,%eax
 807398f:	89 04 24             	mov    %eax,(%esp)
 8073992:	e8 ef f4 ff ff       	call   8072e86 <_ZN15XML_Lua_RoutineD1Ev>
 8073997:	eb 02                	jmp    807399b <_ZN17XML_ListeningItemC1ERKS_+0x167>
 8073999:	89 c3                	mov    %eax,%ebx
 807399b:	8b 45 08             	mov    0x8(%ebp),%eax
 807399e:	83 c0 30             	add    $0x30,%eax
 80739a1:	89 04 24             	mov    %eax,(%esp)
 80739a4:	e8 c9 f4 ff ff       	call   8072e72 <_ZN9XML_ParseD1Ev>
 80739a9:	eb 02                	jmp    80739ad <_ZN17XML_ListeningItemC1ERKS_+0x179>
 80739ab:	89 c3                	mov    %eax,%ebx
 80739ad:	8b 45 08             	mov    0x8(%ebp),%eax
 80739b0:	83 c0 08             	add    $0x8,%eax
 80739b3:	89 04 24             	mov    %eax,(%esp)
 80739b6:	e8 6b f4 ff ff       	call   8072e26 <_ZN11XML_CaptureD1Ev>
 80739bb:	eb 02                	jmp    80739bf <_ZN17XML_ListeningItemC1ERKS_+0x18b>
 80739bd:	89 c3                	mov    %eax,%ebx
 80739bf:	8b 45 08             	mov    0x8(%ebp),%eax
 80739c2:	83 c0 04             	add    $0x4,%eax
 80739c5:	89 04 24             	mov    %eax,(%esp)
 80739c8:	e8 93 e0 ff ff       	call   8071a60 <_ZNSsD1Ev@plt>
 80739cd:	89 d8                	mov    %ebx,%eax
 80739cf:	89 04 24             	mov    %eax,(%esp)
 80739d2:	e8 79 e1 ff ff       	call   8071b50 <_Unwind_Resume@plt>
 80739d7:	83 c4 14             	add    $0x14,%esp
 80739da:	5b                   	pop    %ebx
 80739db:	5d                   	pop    %ebp
 80739dc:	c3                   	ret    
 80739dd:	90                   	nop    

080739de <_ZNSt3mapISsPN3zmq8socket_tESt4lessISsESaISt4pairIKSsS2_EEED1Ev>:
 80739de:	55                   	push   %ebp
 80739df:	89 e5                	mov    %esp,%ebp
 80739e1:	83 ec 18             	sub    $0x18,%esp
 80739e4:	8b 45 08             	mov    0x8(%ebp),%eax
 80739e7:	89 04 24             	mov    %eax,(%esp)
 80739ea:	e8 8f 0c 00 00       	call   807467e <_ZNSt8_Rb_treeISsSt4pairIKSsPN3zmq8socket_tEESt10_Select1stIS5_ESt4lessISsESaIS5_EED1Ev>
 80739ef:	c9                   	leave  
 80739f0:	c3                   	ret    
 80739f1:	90                   	nop    

080739f2 <_ZN15HandleNetPacketC1EPN3zmq9context_tER17XML_ListeningItem>:
 80739f2:	55                   	push   %ebp
 80739f3:	89 e5                	mov    %esp,%ebp
 80739f5:	53                   	push   %ebx
 80739f6:	83 ec 14             	sub    $0x14,%esp
 80739f9:	8b 45 08             	mov    0x8(%ebp),%eax
 80739fc:	89 04 24             	mov    %eax,(%esp)
 80739ff:	e8 74 fa ff ff       	call   8073478 <_ZN10BaseThreadC1Ev>
 8073a04:	8b 45 08             	mov    0x8(%ebp),%eax
 8073a07:	c7 00 58 77 09 08    	movl   $0x8097758,(%eax)
 8073a0d:	8b 45 08             	mov    0x8(%ebp),%eax
 8073a10:	8b 55 0c             	mov    0xc(%ebp),%edx
 8073a13:	89 50 18             	mov    %edx,0x18(%eax)
 8073a16:	8b 45 08             	mov    0x8(%ebp),%eax
 8073a19:	8d 50 20             	lea    0x20(%eax),%edx
 8073a1c:	8b 45 10             	mov    0x10(%ebp),%eax
 8073a1f:	89 44 24 04          	mov    %eax,0x4(%esp)
 8073a23:	89 14 24             	mov    %edx,(%esp)
 8073a26:	e8 09 fe ff ff       	call   8073834 <_ZN17XML_ListeningItemC1ERKS_>
 8073a2b:	8b 45 08             	mov    0x8(%ebp),%eax
 8073a2e:	05 20 01 00 00       	add    $0x120,%eax
 8073a33:	89 04 24             	mov    %eax,(%esp)
 8073a36:	e8 41 0a 00 00       	call   807447c <_ZNSt5dequeIP5ParseSaIS1_EEC1Ev>
 8073a3b:	8b 45 08             	mov    0x8(%ebp),%eax
 8073a3e:	05 48 01 00 00       	add    $0x148,%eax
 8073a43:	89 04 24             	mov    %eax,(%esp)
 8073a46:	e8 cf 0a 00 00       	call   807451a <_ZNSt5dequeIP10LuaRoutineSaIS1_EEC1Ev>
 8073a4b:	8b 45 08             	mov    0x8(%ebp),%eax
 8073a4e:	05 70 01 00 00       	add    $0x170,%eax
 8073a53:	89 04 24             	mov    %eax,(%esp)
 8073a56:	e8 5d 0b 00 00       	call   80745b8 <_ZNSt5dequeIPN3zmq8socket_tESaIS2_EEC1Ev>
 8073a5b:	8b 45 08             	mov    0x8(%ebp),%eax
 8073a5e:	05 98 01 00 00       	add    $0x198,%eax
 8073a63:	89 04 24             	mov    %eax,(%esp)
 8073a66:	e8 eb 0b 00 00       	call   8074656 <_ZNSt3mapISsPN3zmq8socket_tESt4lessISsESaISt4pairIKSsS2_EEEC1Ev>
 8073a6b:	8b 45 08             	mov    0x8(%ebp),%eax
 8073a6e:	c7 80 b0 01 00 00 00 	movl   $0x0,0x1b0(%eax)
 8073a75:	00 00 00 
 8073a78:	8b 45 08             	mov    0x8(%ebp),%eax
 8073a7b:	05 b4 01 00 00       	add    $0x1b4,%eax
 8073a80:	89 04 24             	mov    %eax,(%esp)
 8073a83:	e8 44 06 00 00       	call   80740cc <_ZNSt6vectorI7ZMQItemSaIS0_EEC1Ev>
 8073a88:	8b 45 08             	mov    0x8(%ebp),%eax
 8073a8b:	c7 40 1c 00 00 00 00 	movl   $0x0,0x1c(%eax)
 8073a92:	eb 79                	jmp    8073b0d <_ZN15HandleNetPacketC1EPN3zmq9context_tER17XML_ListeningItem+0x11b>
 8073a94:	89 c3                	mov    %eax,%ebx
 8073a96:	8b 45 08             	mov    0x8(%ebp),%eax
 8073a99:	05 98 01 00 00       	add    $0x198,%eax
 8073a9e:	89 04 24             	mov    %eax,(%esp)
 8073aa1:	e8 38 ff ff ff       	call   80739de <_ZNSt3mapISsPN3zmq8socket_tESt4lessISsESaISt4pairIKSsS2_EEED1Ev>
 8073aa6:	eb 02                	jmp    8073aaa <_ZN15HandleNetPacketC1EPN3zmq9context_tER17XML_ListeningItem+0xb8>
 8073aa8:	89 c3                	mov    %eax,%ebx
 8073aaa:	8b 45 08             	mov    0x8(%ebp),%eax
 8073aad:	05 70 01 00 00       	add    $0x170,%eax
 8073ab2:	89 04 24             	mov    %eax,(%esp)
 8073ab5:	e8 12 0b 00 00       	call   80745cc <_ZNSt5dequeIPN3zmq8socket_tESaIS2_EED1Ev>
 8073aba:	eb 02                	jmp    8073abe <_ZN15HandleNetPacketC1EPN3zmq9context_tER17XML_ListeningItem+0xcc>
 8073abc:	89 c3                	mov    %eax,%ebx
 8073abe:	8b 45 08             	mov    0x8(%ebp),%eax
 8073ac1:	05 48 01 00 00       	add    $0x148,%eax
 8073ac6:	89 04 24             	mov    %eax,(%esp)
 8073ac9:	e8 60 0a 00 00       	call   807452e <_ZNSt5dequeIP10LuaRoutineSaIS1_EED1Ev>
 8073ace:	eb 02                	jmp    8073ad2 <_ZN15HandleNetPacketC1EPN3zmq9context_tER17XML_ListeningItem+0xe0>
 8073ad0:	89 c3                	mov    %eax,%ebx
 8073ad2:	8b 45 08             	mov    0x8(%ebp),%eax
 8073ad5:	05 20 01 00 00       	add    $0x120,%eax
 8073ada:	89 04 24             	mov    %eax,(%esp)
 8073add:	e8 ae 09 00 00       	call   8074490 <_ZNSt5dequeIP5ParseSaIS1_EED1Ev>
 8073ae2:	eb 02                	jmp    8073ae6 <_ZN15HandleNetPacketC1EPN3zmq9context_tER17XML_ListeningItem+0xf4>
 8073ae4:	89 c3                	mov    %eax,%ebx
 8073ae6:	8b 45 08             	mov    0x8(%ebp),%eax
 8073ae9:	83 c0 20             	add    $0x20,%eax
 8073aec:	89 04 24             	mov    %eax,(%esp)
 8073aef:	e8 ea f3 ff ff       	call   8072ede <_ZN17XML_ListeningItemD1Ev>
 8073af4:	eb 02                	jmp    8073af8 <_ZN15HandleNetPacketC1EPN3zmq9context_tER17XML_ListeningItem+0x106>
 8073af6:	89 c3                	mov    %eax,%ebx
 8073af8:	8b 45 08             	mov    0x8(%ebp),%eax
 8073afb:	89 04 24             	mov    %eax,(%esp)
 8073afe:	e8 a3 f9 ff ff       	call   80734a6 <_ZN10BaseThreadD1Ev>
 8073b03:	89 d8                	mov    %ebx,%eax
 8073b05:	89 04 24             	mov    %eax,(%esp)
 8073b08:	e8 43 e0 ff ff       	call   8071b50 <_Unwind_Resume@plt>
 8073b0d:	83 c4 14             	add    $0x14,%esp
 8073b10:	5b                   	pop    %ebx
 8073b11:	5d                   	pop    %ebp
 8073b12:	c3                   	ret    
 8073b13:	90                   	nop    

08073b14 <_ZN15HandleNetPacketD1Ev>:
 8073b14:	55                   	push   %ebp
 8073b15:	89 e5                	mov    %esp,%ebp
 8073b17:	53                   	push   %ebx
 8073b18:	83 ec 24             	sub    $0x24,%esp
 8073b1b:	8b 45 08             	mov    0x8(%ebp),%eax
 8073b1e:	c7 00 58 77 09 08    	movl   $0x8097758,(%eax)
 8073b24:	8b 45 08             	mov    0x8(%ebp),%eax
 8073b27:	8b 40 1c             	mov    0x1c(%eax),%eax
 8073b2a:	85 c0                	test   %eax,%eax
 8073b2c:	74 24                	je     8073b52 <_ZN15HandleNetPacketD1Ev+0x3e>
 8073b2e:	8b 45 08             	mov    0x8(%ebp),%eax
 8073b31:	8b 58 1c             	mov    0x1c(%eax),%ebx
 8073b34:	85 db                	test   %ebx,%ebx
 8073b36:	74 10                	je     8073b48 <_ZN15HandleNetPacketD1Ev+0x34>
 8073b38:	89 1c 24             	mov    %ebx,(%esp)
 8073b3b:	e8 58 f6 ff ff       	call   8073198 <_ZN3zmq8socket_tD1Ev>
 8073b40:	89 1c 24             	mov    %ebx,(%esp)
 8073b43:	e8 98 dc ff ff       	call   80717e0 <_ZdlPv@plt>
 8073b48:	8b 45 08             	mov    0x8(%ebp),%eax
 8073b4b:	c7 40 1c 00 00 00 00 	movl   $0x0,0x1c(%eax)
 8073b52:	eb 49                	jmp    8073b9d <_ZN15HandleNetPacketD1Ev+0x89>
 8073b54:	8b 45 08             	mov    0x8(%ebp),%eax
 8073b57:	05 70 01 00 00       	add    $0x170,%eax
 8073b5c:	89 04 24             	mov    %eax,(%esp)
 8073b5f:	e8 86 0b 00 00       	call   80746ea <_ZNSt5dequeIPN3zmq8socket_tESaIS2_EE5frontEv>
 8073b64:	8b 00                	mov    (%eax),%eax
 8073b66:	89 45 f4             	mov    %eax,0xfffffff4(%ebp)
 8073b69:	83 7d f4 00          	cmpl   $0x0,0xfffffff4(%ebp)
 8073b6d:	74 1e                	je     8073b8d <_ZN15HandleNetPacketD1Ev+0x79>
 8073b6f:	8b 5d f4             	mov    0xfffffff4(%ebp),%ebx
 8073b72:	85 db                	test   %ebx,%ebx
 8073b74:	74 10                	je     8073b86 <_ZN15HandleNetPacketD1Ev+0x72>
 8073b76:	89 1c 24             	mov    %ebx,(%esp)
 8073b79:	e8 1a f6 ff ff       	call   8073198 <_ZN3zmq8socket_tD1Ev>
 8073b7e:	89 1c 24             	mov    %ebx,(%esp)
 8073b81:	e8 5a dc ff ff       	call   80717e0 <_ZdlPv@plt>
 8073b86:	c7 45 f4 00 00 00 00 	movl   $0x0,0xfffffff4(%ebp)
 8073b8d:	8b 45 08             	mov    0x8(%ebp),%eax
 8073b90:	05 70 01 00 00       	add    $0x170,%eax
 8073b95:	89 04 24             	mov    %eax,(%esp)
 8073b98:	e8 75 0b 00 00       	call   8074712 <_ZNSt5dequeIPN3zmq8socket_tESaIS2_EE9pop_frontEv>
 8073b9d:	8b 45 08             	mov    0x8(%ebp),%eax
 8073ba0:	05 70 01 00 00       	add    $0x170,%eax
 8073ba5:	89 04 24             	mov    %eax,(%esp)
 8073ba8:	e8 1d 0b 00 00       	call   80746ca <_ZNKSt5dequeIPN3zmq8socket_tESaIS2_EE5emptyEv>
 8073bad:	83 f0 01             	xor    $0x1,%eax
 8073bb0:	84 c0                	test   %al,%al
 8073bb2:	75 a0                	jne    8073b54 <_ZN15HandleNetPacketD1Ev+0x40>
 8073bb4:	eb 4a                	jmp    8073c00 <_ZN15HandleNetPacketD1Ev+0xec>
 8073bb6:	8b 45 08             	mov    0x8(%ebp),%eax
 8073bb9:	05 20 01 00 00       	add    $0x120,%eax
 8073bbe:	89 04 24             	mov    %eax,(%esp)
 8073bc1:	e8 b8 0b 00 00       	call   807477e <_ZNSt5dequeIP5ParseSaIS1_EE5frontEv>
 8073bc6:	8b 00                	mov    (%eax),%eax
 8073bc8:	89 45 f0             	mov    %eax,0xfffffff0(%ebp)
 8073bcb:	83 7d f0 00          	cmpl   $0x0,0xfffffff0(%ebp)
 8073bcf:	74 1f                	je     8073bf0 <_ZN15HandleNetPacketD1Ev+0xdc>
 8073bd1:	83 7d f0 00          	cmpl   $0x0,0xfffffff0(%ebp)
 8073bd5:	74 12                	je     8073be9 <_ZN15HandleNetPacketD1Ev+0xd5>
 8073bd7:	8b 45 f0             	mov    0xfffffff0(%ebp),%eax
 8073bda:	8b 00                	mov    (%eax),%eax
 8073bdc:	83 c0 04             	add    $0x4,%eax
 8073bdf:	8b 00                	mov    (%eax),%eax
 8073be1:	8b 55 f0             	mov    0xfffffff0(%ebp),%edx
 8073be4:	89 14 24             	mov    %edx,(%esp)
 8073be7:	ff d0                	call   *%eax
 8073be9:	c7 45 f0 00 00 00 00 	movl   $0x0,0xfffffff0(%ebp)
 8073bf0:	8b 45 08             	mov    0x8(%ebp),%eax
 8073bf3:	05 20 01 00 00       	add    $0x120,%eax
 8073bf8:	89 04 24             	mov    %eax,(%esp)
 8073bfb:	e8 a6 0b 00 00       	call   80747a6 <_ZNSt5dequeIP5ParseSaIS1_EE9pop_frontEv>
 8073c00:	8b 45 08             	mov    0x8(%ebp),%eax
 8073c03:	05 20 01 00 00       	add    $0x120,%eax
 8073c08:	89 04 24             	mov    %eax,(%esp)
 8073c0b:	e8 4e 0b 00 00       	call   807475e <_ZNKSt5dequeIP5ParseSaIS1_EE5emptyEv>
 8073c10:	83 f0 01             	xor    $0x1,%eax
 8073c13:	84 c0                	test   %al,%al
 8073c15:	75 9f                	jne    8073bb6 <_ZN15HandleNetPacketD1Ev+0xa2>
 8073c17:	eb 4a                	jmp    8073c63 <_ZN15HandleNetPacketD1Ev+0x14f>
 8073c19:	8b 45 08             	mov    0x8(%ebp),%eax
 8073c1c:	05 48 01 00 00       	add    $0x148,%eax
 8073c21:	89 04 24             	mov    %eax,(%esp)
 8073c24:	e8 e9 0b 00 00       	call   8074812 <_ZNSt5dequeIP10LuaRoutineSaIS1_EE5frontEv>
 8073c29:	8b 00                	mov    (%eax),%eax
 8073c2b:	89 45 ec             	mov    %eax,0xffffffec(%ebp)
 8073c2e:	83 7d ec 00          	cmpl   $0x0,0xffffffec(%ebp)
 8073c32:	74 1f                	je     8073c53 <_ZN15HandleNetPacketD1Ev+0x13f>
 8073c34:	83 7d ec 00          	cmpl   $0x0,0xffffffec(%ebp)
 8073c38:	74 12                	je     8073c4c <_ZN15HandleNetPacketD1Ev+0x138>
 8073c3a:	8b 45 ec             	mov    0xffffffec(%ebp),%eax
 8073c3d:	8b 00                	mov    (%eax),%eax
 8073c3f:	83 c0 04             	add    $0x4,%eax
 8073c42:	8b 00                	mov    (%eax),%eax
 8073c44:	8b 55 ec             	mov    0xffffffec(%ebp),%edx
 8073c47:	89 14 24             	mov    %edx,(%esp)
 8073c4a:	ff d0                	call   *%eax
 8073c4c:	c7 45 ec 00 00 00 00 	movl   $0x0,0xffffffec(%ebp)
 8073c53:	8b 45 08             	mov    0x8(%ebp),%eax
 8073c56:	05 48 01 00 00       	add    $0x148,%eax
 8073c5b:	89 04 24             	mov    %eax,(%esp)
 8073c5e:	e8 d7 0b 00 00       	call   807483a <_ZNSt5dequeIP10LuaRoutineSaIS1_EE9pop_frontEv>
 8073c63:	8b 45 08             	mov    0x8(%ebp),%eax
 8073c66:	05 48 01 00 00       	add    $0x148,%eax
 8073c6b:	89 04 24             	mov    %eax,(%esp)
 8073c6e:	e8 7f 0b 00 00       	call   80747f2 <_ZNKSt5dequeIP10LuaRoutineSaIS1_EE5emptyEv>
 8073c73:	83 f0 01             	xor    $0x1,%eax
 8073c76:	84 c0                	test   %al,%al
 8073c78:	75 9f                	jne    8073c19 <_ZN15HandleNetPacketD1Ev+0x105>
 8073c7a:	8b 45 08             	mov    0x8(%ebp),%eax
 8073c7d:	05 98 01 00 00       	add    $0x198,%eax
 8073c82:	89 04 24             	mov    %eax,(%esp)
 8073c85:	e8 fc 0b 00 00       	call   8074886 <_ZNSt3mapISsPN3zmq8socket_tESt4lessISsESaISt4pairIKSsS2_EEE5clearEv>
 8073c8a:	8b 45 08             	mov    0x8(%ebp),%eax
 8073c8d:	05 b4 01 00 00       	add    $0x1b4,%eax
 8073c92:	89 04 24             	mov    %eax,(%esp)
 8073c95:	e8 46 04 00 00       	call   80740e0 <_ZNSt6vectorI7ZMQItemSaIS0_EED1Ev>
 8073c9a:	8b 45 08             	mov    0x8(%ebp),%eax
 8073c9d:	05 98 01 00 00       	add    $0x198,%eax
 8073ca2:	89 04 24             	mov    %eax,(%esp)
 8073ca5:	e8 34 fd ff ff       	call   80739de <_ZNSt3mapISsPN3zmq8socket_tESt4lessISsESaISt4pairIKSsS2_EEED1Ev>
 8073caa:	8b 45 08             	mov    0x8(%ebp),%eax
 8073cad:	05 70 01 00 00       	add    $0x170,%eax
 8073cb2:	89 04 24             	mov    %eax,(%esp)
 8073cb5:	e8 12 09 00 00       	call   80745cc <_ZNSt5dequeIPN3zmq8socket_tESaIS2_EED1Ev>
 8073cba:	8b 45 08             	mov    0x8(%ebp),%eax
 8073cbd:	05 48 01 00 00       	add    $0x148,%eax
 8073cc2:	89 04 24             	mov    %eax,(%esp)
 8073cc5:	e8 64 08 00 00       	call   807452e <_ZNSt5dequeIP10LuaRoutineSaIS1_EED1Ev>
 8073cca:	8b 45 08             	mov    0x8(%ebp),%eax
 8073ccd:	05 20 01 00 00       	add    $0x120,%eax
 8073cd2:	89 04 24             	mov    %eax,(%esp)
 8073cd5:	e8 b6 07 00 00       	call   8074490 <_ZNSt5dequeIP5ParseSaIS1_EED1Ev>
 8073cda:	8b 45 08             	mov    0x8(%ebp),%eax
 8073cdd:	83 c0 20             	add    $0x20,%eax
 8073ce0:	89 04 24             	mov    %eax,(%esp)
 8073ce3:	e8 f6 f1 ff ff       	call   8072ede <_ZN17XML_ListeningItemD1Ev>
 8073ce8:	8b 45 08             	mov    0x8(%ebp),%eax
 8073ceb:	89 04 24             	mov    %eax,(%esp)
 8073cee:	e8 b3 f7 ff ff       	call   80734a6 <_ZN10BaseThreadD1Ev>
 8073cf3:	b8 00 00 00 00       	mov    $0x0,%eax
 8073cf8:	85 c0                	test   %eax,%eax
 8073cfa:	0f 84 9d 00 00 00    	je     8073d9d <_ZN15HandleNetPacketD1Ev+0x289>
 8073d00:	8b 45 08             	mov    0x8(%ebp),%eax
 8073d03:	89 04 24             	mov    %eax,(%esp)
 8073d06:	e8 d5 da ff ff       	call   80717e0 <_ZdlPv@plt>
 8073d0b:	e9 8d 00 00 00       	jmp    8073d9d <_ZN15HandleNetPacketD1Ev+0x289>
 8073d10:	89 c3                	mov    %eax,%ebx
 8073d12:	8b 45 08             	mov    0x8(%ebp),%eax
 8073d15:	05 b4 01 00 00       	add    $0x1b4,%eax
 8073d1a:	89 04 24             	mov    %eax,(%esp)
 8073d1d:	e8 be 03 00 00       	call   80740e0 <_ZNSt6vectorI7ZMQItemSaIS0_EED1Ev>
 8073d22:	eb 02                	jmp    8073d26 <_ZN15HandleNetPacketD1Ev+0x212>
 8073d24:	89 c3                	mov    %eax,%ebx
 8073d26:	8b 45 08             	mov    0x8(%ebp),%eax
 8073d29:	05 98 01 00 00       	add    $0x198,%eax
 8073d2e:	89 04 24             	mov    %eax,(%esp)
 8073d31:	e8 a8 fc ff ff       	call   80739de <_ZNSt3mapISsPN3zmq8socket_tESt4lessISsESaISt4pairIKSsS2_EEED1Ev>
 8073d36:	eb 02                	jmp    8073d3a <_ZN15HandleNetPacketD1Ev+0x226>
 8073d38:	89 c3                	mov    %eax,%ebx
 8073d3a:	8b 45 08             	mov    0x8(%ebp),%eax
 8073d3d:	05 70 01 00 00       	add    $0x170,%eax
 8073d42:	89 04 24             	mov    %eax,(%esp)
 8073d45:	e8 82 08 00 00       	call   80745cc <_ZNSt5dequeIPN3zmq8socket_tESaIS2_EED1Ev>
 8073d4a:	eb 02                	jmp    8073d4e <_ZN15HandleNetPacketD1Ev+0x23a>
 8073d4c:	89 c3                	mov    %eax,%ebx
 8073d4e:	8b 45 08             	mov    0x8(%ebp),%eax
 8073d51:	05 48 01 00 00       	add    $0x148,%eax
 8073d56:	89 04 24             	mov    %eax,(%esp)
 8073d59:	e8 d0 07 00 00       	call   807452e <_ZNSt5dequeIP10LuaRoutineSaIS1_EED1Ev>
 8073d5e:	eb 02                	jmp    8073d62 <_ZN15HandleNetPacketD1Ev+0x24e>
 8073d60:	89 c3                	mov    %eax,%ebx
 8073d62:	8b 45 08             	mov    0x8(%ebp),%eax
 8073d65:	05 20 01 00 00       	add    $0x120,%eax
 8073d6a:	89 04 24             	mov    %eax,(%esp)
 8073d6d:	e8 1e 07 00 00       	call   8074490 <_ZNSt5dequeIP5ParseSaIS1_EED1Ev>
 8073d72:	eb 02                	jmp    8073d76 <_ZN15HandleNetPacketD1Ev+0x262>
 8073d74:	89 c3                	mov    %eax,%ebx
 8073d76:	8b 45 08             	mov    0x8(%ebp),%eax
 8073d79:	83 c0 20             	add    $0x20,%eax
 8073d7c:	89 04 24             	mov    %eax,(%esp)
 8073d7f:	e8 5a f1 ff ff       	call   8072ede <_ZN17XML_ListeningItemD1Ev>
 8073d84:	eb 02                	jmp    8073d88 <_ZN15HandleNetPacketD1Ev+0x274>
 8073d86:	89 c3                	mov    %eax,%ebx
 8073d88:	8b 45 08             	mov    0x8(%ebp),%eax
 8073d8b:	89 04 24             	mov    %eax,(%esp)
 8073d8e:	e8 13 f7 ff ff       	call   80734a6 <_ZN10BaseThreadD1Ev>
 8073d93:	89 d8                	mov    %ebx,%eax
 8073d95:	89 04 24             	mov    %eax,(%esp)
 8073d98:	e8 b3 dd ff ff       	call   8071b50 <_Unwind_Resume@plt>
 8073d9d:	83 c4 24             	add    $0x24,%esp
 8073da0:	5b                   	pop    %ebx
 8073da1:	5d                   	pop    %ebp
 8073da2:	c3                   	ret    
 8073da3:	90                   	nop    

08073da4 <_ZN15HandleNetPacketD0Ev>:
 8073da4:	55                   	push   %ebp
 8073da5:	89 e5                	mov    %esp,%ebp
 8073da7:	83 ec 18             	sub    $0x18,%esp
 8073daa:	8b 45 08             	mov    0x8(%ebp),%eax
 8073dad:	89 04 24             	mov    %eax,(%esp)
 8073db0:	e8 5f fd ff ff       	call   8073b14 <_ZN15HandleNetPacketD1Ev>
 8073db5:	8b 45 08             	mov    0x8(%ebp),%eax
 8073db8:	89 04 24             	mov    %eax,(%esp)
 8073dbb:	e8 20 da ff ff       	call   80717e0 <_ZdlPv@plt>
 8073dc0:	c9                   	leave  
 8073dc1:	c3                   	ret    

08073dc2 <_ZN22DIDTemplateToLuaStructC1Ev>:
 8073dc2:	55                   	push   %ebp
 8073dc3:	89 e5                	mov    %esp,%ebp
 8073dc5:	83 ec 18             	sub    $0x18,%esp
 8073dc8:	8b 45 08             	mov    0x8(%ebp),%eax
 8073dcb:	89 04 24             	mov    %eax,(%esp)
 8073dce:	e8 2d 02 00 00       	call   8074000 <_ZNSt6vectorISsSaISsEEC1Ev>
 8073dd3:	c9                   	leave  
 8073dd4:	c3                   	ret    
 8073dd5:	90                   	nop    

08073dd6 <_ZN22DIDTemplateToLuaStructD1Ev>:
 8073dd6:	55                   	push   %ebp
 8073dd7:	89 e5                	mov    %esp,%ebp
 8073dd9:	83 ec 18             	sub    $0x18,%esp
 8073ddc:	8b 45 08             	mov    0x8(%ebp),%eax
 8073ddf:	89 04 24             	mov    %eax,(%esp)
 8073de2:	e8 2d 02 00 00       	call   8074014 <_ZNSt6vectorISsSaISsEED1Ev>
 8073de7:	c9                   	leave  
 8073de8:	c3                   	ret    
 8073de9:	90                   	nop    

08073dea <_ZN12ConfigParserC1EPc>:
 8073dea:	55                   	push   %ebp
 8073deb:	89 e5                	mov    %esp,%ebp
 8073ded:	53                   	push   %ebx
 8073dee:	83 ec 24             	sub    $0x24,%esp
 8073df1:	8d 45 f7             	lea    0xfffffff7(%ebp),%eax
 8073df4:	89 04 24             	mov    %eax,(%esp)
 8073df7:	e8 64 dd ff ff       	call   8071b60 <_ZNSaIcEC1Ev@plt>
 8073dfc:	8b 45 08             	mov    0x8(%ebp),%eax
 8073dff:	8d 55 f7             	lea    0xfffffff7(%ebp),%edx
 8073e02:	89 54 24 08          	mov    %edx,0x8(%esp)
 8073e06:	8b 55 0c             	mov    0xc(%ebp),%edx
 8073e09:	89 54 24 04          	mov    %edx,0x4(%esp)
 8073e0d:	89 04 24             	mov    %eax,(%esp)
 8073e10:	e8 cb da ff ff       	call   80718e0 <_ZNSsC1EPKcRKSaIcE@plt>
 8073e15:	8d 45 f7             	lea    0xfffffff7(%ebp),%eax
 8073e18:	89 04 24             	mov    %eax,(%esp)
 8073e1b:	e8 70 da ff ff       	call   8071890 <_ZNSaIcED1Ev@plt>
 8073e20:	8b 45 08             	mov    0x8(%ebp),%eax
 8073e23:	83 c0 04             	add    $0x4,%eax
 8073e26:	89 04 24             	mov    %eax,(%esp)
 8073e29:	e8 6c 0a 00 00       	call   807489a <_ZNSt6vectorIiSaIiEEC1Ev>
 8073e2e:	8b 45 08             	mov    0x8(%ebp),%eax
 8073e31:	83 c0 10             	add    $0x10,%eax
 8073e34:	89 04 24             	mov    %eax,(%esp)
 8073e37:	e8 5e f0 ff ff       	call   8072e9a <_ZN7XML_LogC1Ev>
 8073e3c:	8b 45 08             	mov    0x8(%ebp),%eax
 8073e3f:	83 c0 38             	add    $0x38,%eax
 8073e42:	89 04 24             	mov    %eax,(%esp)
 8073e45:	e8 64 0a 00 00       	call   80748ae <_ZNSt5dequeI17XML_ListeningItemSaIS0_EEC1Ev>
 8073e4a:	eb 52                	jmp    8073e9e <_ZN12ConfigParserC1EPc+0xb4>
 8073e4c:	89 c3                	mov    %eax,%ebx
 8073e4e:	8d 45 f7             	lea    0xfffffff7(%ebp),%eax
 8073e51:	89 04 24             	mov    %eax,(%esp)
 8073e54:	e8 37 da ff ff       	call   8071890 <_ZNSaIcED1Ev@plt>
 8073e59:	89 d8                	mov    %ebx,%eax
 8073e5b:	89 04 24             	mov    %eax,(%esp)
 8073e5e:	e8 ed dc ff ff       	call   8071b50 <_Unwind_Resume@plt>
 8073e63:	89 c3                	mov    %eax,%ebx
 8073e65:	8b 45 08             	mov    0x8(%ebp),%eax
 8073e68:	83 c0 10             	add    $0x10,%eax
 8073e6b:	89 04 24             	mov    %eax,(%esp)
 8073e6e:	e8 3b f0 ff ff       	call   8072eae <_ZN7XML_LogD1Ev>
 8073e73:	eb 02                	jmp    8073e77 <_ZN12ConfigParserC1EPc+0x8d>
 8073e75:	89 c3                	mov    %eax,%ebx
 8073e77:	8b 45 08             	mov    0x8(%ebp),%eax
 8073e7a:	83 c0 04             	add    $0x4,%eax
 8073e7d:	89 04 24             	mov    %eax,(%esp)
 8073e80:	e8 df 03 00 00       	call   8074264 <_ZNSt6vectorIiSaIiEED1Ev>
 8073e85:	eb 02                	jmp    8073e89 <_ZN12ConfigParserC1EPc+0x9f>
 8073e87:	89 c3                	mov    %eax,%ebx
 8073e89:	8b 45 08             	mov    0x8(%ebp),%eax
 8073e8c:	89 04 24             	mov    %eax,(%esp)
 8073e8f:	e8 cc db ff ff       	call   8071a60 <_ZNSsD1Ev@plt>
 8073e94:	89 d8                	mov    %ebx,%eax
 8073e96:	89 04 24             	mov    %eax,(%esp)
 8073e99:	e8 b2 dc ff ff       	call   8071b50 <_Unwind_Resume@plt>
 8073e9e:	83 c4 24             	add    $0x24,%esp
 8073ea1:	5b                   	pop    %ebx
 8073ea2:	5d                   	pop    %ebp
 8073ea3:	c3                   	ret    

08073ea4 <_ZN12ConfigParserD1Ev>:
 8073ea4:	55                   	push   %ebp
 8073ea5:	89 e5                	mov    %esp,%ebp
 8073ea7:	53                   	push   %ebx
 8073ea8:	83 ec 14             	sub    $0x14,%esp
 8073eab:	8b 45 08             	mov    0x8(%ebp),%eax
 8073eae:	83 c0 38             	add    $0x38,%eax
 8073eb1:	89 04 24             	mov    %eax,(%esp)
 8073eb4:	e8 09 0a 00 00       	call   80748c2 <_ZNSt5dequeI17XML_ListeningItemSaIS0_EED1Ev>
 8073eb9:	8b 45 08             	mov    0x8(%ebp),%eax
 8073ebc:	83 c0 10             	add    $0x10,%eax
 8073ebf:	89 04 24             	mov    %eax,(%esp)
 8073ec2:	e8 e7 ef ff ff       	call   8072eae <_ZN7XML_LogD1Ev>
 8073ec7:	8b 45 08             	mov    0x8(%ebp),%eax
 8073eca:	83 c0 04             	add    $0x4,%eax
 8073ecd:	89 04 24             	mov    %eax,(%esp)
 8073ed0:	e8 8f 03 00 00       	call   8074264 <_ZNSt6vectorIiSaIiEED1Ev>
 8073ed5:	8b 45 08             	mov    0x8(%ebp),%eax
 8073ed8:	89 04 24             	mov    %eax,(%esp)
 8073edb:	e8 80 db ff ff       	call   8071a60 <_ZNSsD1Ev@plt>
 8073ee0:	eb 3b                	jmp    8073f1d <_ZN12ConfigParserD1Ev+0x79>
 8073ee2:	89 c3                	mov    %eax,%ebx
 8073ee4:	8b 45 08             	mov    0x8(%ebp),%eax
 8073ee7:	83 c0 10             	add    $0x10,%eax
 8073eea:	89 04 24             	mov    %eax,(%esp)
 8073eed:	e8 bc ef ff ff       	call   8072eae <_ZN7XML_LogD1Ev>
 8073ef2:	eb 02                	jmp    8073ef6 <_ZN12ConfigParserD1Ev+0x52>
 8073ef4:	89 c3                	mov    %eax,%ebx
 8073ef6:	8b 45 08             	mov    0x8(%ebp),%eax
 8073ef9:	83 c0 04             	add    $0x4,%eax
 8073efc:	89 04 24             	mov    %eax,(%esp)
 8073eff:	e8 60 03 00 00       	call   8074264 <_ZNSt6vectorIiSaIiEED1Ev>
 8073f04:	eb 02                	jmp    8073f08 <_ZN12ConfigParserD1Ev+0x64>
 8073f06:	89 c3                	mov    %eax,%ebx
 8073f08:	8b 45 08             	mov    0x8(%ebp),%eax
 8073f0b:	89 04 24             	mov    %eax,(%esp)
 8073f0e:	e8 4d db ff ff       	call   8071a60 <_ZNSsD1Ev@plt>
 8073f13:	89 d8                	mov    %ebx,%eax
 8073f15:	89 04 24             	mov    %eax,(%esp)
 8073f18:	e8 33 dc ff ff       	call   8071b50 <_Unwind_Resume@plt>
 8073f1d:	83 c4 14             	add    $0x14,%esp
 8073f20:	5b                   	pop    %ebx
 8073f21:	5d                   	pop    %ebp
 8073f22:	c3                   	ret    
 8073f23:	90                   	nop    

08073f24 <_ZN12ConfigParser18get_listeningitemsEv>:
 8073f24:	55                   	push   %ebp
 8073f25:	89 e5                	mov    %esp,%ebp
 8073f27:	8b 45 08             	mov    0x8(%ebp),%eax
 8073f2a:	83 c0 38             	add    $0x38,%eax
 8073f2d:	5d                   	pop    %ebp
 8073f2e:	c3                   	ret    
 8073f2f:	90                   	nop    

08073f30 <_ZN12ConfigParser11get_log_objEv>:
 8073f30:	55                   	push   %ebp
 8073f31:	89 e5                	mov    %esp,%ebp
 8073f33:	8b 45 08             	mov    0x8(%ebp),%eax
 8073f36:	83 c0 10             	add    $0x10,%eax
 8073f39:	5d                   	pop    %ebp
 8073f3a:	c3                   	ret    
 8073f3b:	90                   	nop    

08073f3c <_ZN12ConfigParser9get_portsEv>:
 8073f3c:	55                   	push   %ebp
 8073f3d:	89 e5                	mov    %esp,%ebp
 8073f3f:	8b 45 08             	mov    0x8(%ebp),%eax
 8073f42:	83 c0 04             	add    $0x4,%eax
 8073f45:	5d                   	pop    %ebp
 8073f46:	c3                   	ret    

08073f47 <_ZSteqIcSt11char_traitsIcESaIcEEbPKT_RKSbIS3_T0_T1_E>:
 8073f47:	55                   	push   %ebp
 8073f48:	89 e5                	mov    %esp,%ebp
 8073f4a:	83 ec 18             	sub    $0x18,%esp
 8073f4d:	8b 45 08             	mov    0x8(%ebp),%eax
 8073f50:	89 44 24 04          	mov    %eax,0x4(%esp)
 8073f54:	8b 45 0c             	mov    0xc(%ebp),%eax
 8073f57:	89 04 24             	mov    %eax,(%esp)
 8073f5a:	e8 71 d5 ff ff       	call   80714d0 <_ZNKSs7compareEPKc@plt>
 8073f5f:	85 c0                	test   %eax,%eax
 8073f61:	0f 94 c0             	sete   %al
 8073f64:	c9                   	leave  
 8073f65:	c3                   	ret    

08073f66 <_ZNSt5dequeI7XML_ZMQSaIS0_EEC1Ev>:
 8073f66:	55                   	push   %ebp
 8073f67:	89 e5                	mov    %esp,%ebp
 8073f69:	83 ec 18             	sub    $0x18,%esp
 8073f6c:	8b 45 08             	mov    0x8(%ebp),%eax
 8073f6f:	89 04 24             	mov    %eax,(%esp)
 8073f72:	e8 63 0f 00 00       	call   8074eda <_ZNSt11_Deque_baseI7XML_ZMQSaIS0_EEC1Ev>
 8073f77:	c9                   	leave  
 8073f78:	c3                   	ret    
 8073f79:	90                   	nop    

08073f7a <_ZNSt5dequeI7XML_ZMQSaIS0_EED1Ev>:
 8073f7a:	55                   	push   %ebp
 8073f7b:	89 e5                	mov    %esp,%ebp
 8073f7d:	53                   	push   %ebx
 8073f7e:	83 ec 34             	sub    $0x34,%esp
 8073f81:	8b 45 08             	mov    0x8(%ebp),%eax
 8073f84:	89 04 24             	mov    %eax,(%esp)
 8073f87:	e8 0c 10 00 00       	call   8074f98 <_ZNSt11_Deque_baseI7XML_ZMQSaIS0_EE19_M_get_Tp_allocatorEv>
 8073f8c:	89 c3                	mov    %eax,%ebx
 8073f8e:	8d 45 d8             	lea    0xffffffd8(%ebp),%eax
 8073f91:	8b 55 08             	mov    0x8(%ebp),%edx
 8073f94:	89 54 24 04          	mov    %edx,0x4(%esp)
 8073f98:	89 04 24             	mov    %eax,(%esp)
 8073f9b:	e8 fe 09 00 00       	call   807499e <_ZNSt5dequeI7XML_ZMQSaIS0_EE3endEv>
 8073fa0:	83 ec 04             	sub    $0x4,%esp
 8073fa3:	8d 45 e8             	lea    0xffffffe8(%ebp),%eax
 8073fa6:	8b 55 08             	mov    0x8(%ebp),%edx
 8073fa9:	89 54 24 04          	mov    %edx,0x4(%esp)
 8073fad:	89 04 24             	mov    %eax,(%esp)
 8073fb0:	e8 93 09 00 00       	call   8074948 <_ZNSt5dequeI7XML_ZMQSaIS0_EE5beginEv>
 8073fb5:	83 ec 04             	sub    $0x4,%esp
 8073fb8:	89 5c 24 0c          	mov    %ebx,0xc(%esp)
 8073fbc:	8d 45 d8             	lea    0xffffffd8(%ebp),%eax
 8073fbf:	89 44 24 08          	mov    %eax,0x8(%esp)
 8073fc3:	8d 45 e8             	lea    0xffffffe8(%ebp),%eax
 8073fc6:	89 44 24 04          	mov    %eax,0x4(%esp)
 8073fca:	8b 45 08             	mov    0x8(%ebp),%eax
 8073fcd:	89 04 24             	mov    %eax,(%esp)
 8073fd0:	e8 cb 0f 00 00       	call   8074fa0 <_ZNSt5dequeI7XML_ZMQSaIS0_EE15_M_destroy_dataESt15_Deque_iteratorIS0_RS0_PS0_ES6_RKS1_>
 8073fd5:	8b 45 08             	mov    0x8(%ebp),%eax
 8073fd8:	89 04 24             	mov    %eax,(%esp)
 8073fdb:	e8 3e 0f 00 00       	call   8074f1e <_ZNSt11_Deque_baseI7XML_ZMQSaIS0_EED1Ev>
 8073fe0:	eb 19                	jmp    8073ffb <_ZNSt5dequeI7XML_ZMQSaIS0_EED1Ev+0x81>
 8073fe2:	eb 00                	jmp    8073fe4 <_ZNSt5dequeI7XML_ZMQSaIS0_EED1Ev+0x6a>
 8073fe4:	89 c3                	mov    %eax,%ebx
 8073fe6:	8b 45 08             	mov    0x8(%ebp),%eax
 8073fe9:	89 04 24             	mov    %eax,(%esp)
 8073fec:	e8 2d 0f 00 00       	call   8074f1e <_ZNSt11_Deque_baseI7XML_ZMQSaIS0_EED1Ev>
 8073ff1:	89 d8                	mov    %ebx,%eax
 8073ff3:	89 04 24             	mov    %eax,(%esp)
 8073ff6:	e8 55 db ff ff       	call   8071b50 <_Unwind_Resume@plt>
 8073ffb:	8b 5d fc             	mov    0xfffffffc(%ebp),%ebx
 8073ffe:	c9                   	leave  
 8073fff:	c3                   	ret    

08074000 <_ZNSt6vectorISsSaISsEEC1Ev>:
 8074000:	55                   	push   %ebp
 8074001:	89 e5                	mov    %esp,%ebp
 8074003:	83 ec 18             	sub    $0x18,%esp
 8074006:	8b 45 08             	mov    0x8(%ebp),%eax
 8074009:	89 04 24             	mov    %eax,(%esp)
 807400c:	e8 f3 0f 00 00       	call   8075004 <_ZNSt12_Vector_baseISsSaISsEEC1Ev>
 8074011:	c9                   	leave  
 8074012:	c3                   	ret    
 8074013:	90                   	nop    

08074014 <_ZNSt6vectorISsSaISsEED1Ev>:
 8074014:	55                   	push   %ebp
 8074015:	89 e5                	mov    %esp,%ebp
 8074017:	53                   	push   %ebx
 8074018:	83 ec 14             	sub    $0x14,%esp
 807401b:	8b 45 08             	mov    0x8(%ebp),%eax
 807401e:	89 04 24             	mov    %eax,(%esp)
 8074021:	e8 52 10 00 00       	call   8075078 <_ZNSt12_Vector_baseISsSaISsEE19_M_get_Tp_allocatorEv>
 8074026:	8b 55 08             	mov    0x8(%ebp),%edx
 8074029:	8b 4a 04             	mov    0x4(%edx),%ecx
 807402c:	8b 55 08             	mov    0x8(%ebp),%edx
 807402f:	8b 12                	mov    (%edx),%edx
 8074031:	89 44 24 08          	mov    %eax,0x8(%esp)
 8074035:	89 4c 24 04          	mov    %ecx,0x4(%esp)
 8074039:	89 14 24             	mov    %edx,(%esp)
 807403c:	e8 3f 10 00 00       	call   8075080 <_ZSt8_DestroyIPSsSsEvT_S1_RSaIT0_E>
 8074041:	8b 45 08             	mov    0x8(%ebp),%eax
 8074044:	89 04 24             	mov    %eax,(%esp)
 8074047:	e8 cc 0f 00 00       	call   8075018 <_ZNSt12_Vector_baseISsSaISsEED1Ev>
 807404c:	eb 17                	jmp    8074065 <_ZNSt6vectorISsSaISsEED1Ev+0x51>
 807404e:	89 c3                	mov    %eax,%ebx
 8074050:	8b 45 08             	mov    0x8(%ebp),%eax
 8074053:	89 04 24             	mov    %eax,(%esp)
 8074056:	e8 bd 0f 00 00       	call   8075018 <_ZNSt12_Vector_baseISsSaISsEED1Ev>
 807405b:	89 d8                	mov    %ebx,%eax
 807405d:	89 04 24             	mov    %eax,(%esp)
 8074060:	e8 eb da ff ff       	call   8071b50 <_Unwind_Resume@plt>
 8074065:	83 c4 14             	add    $0x14,%esp
 8074068:	5b                   	pop    %ebx
 8074069:	5d                   	pop    %ebp
 807406a:	c3                   	ret    
 807406b:	90                   	nop    

0807406c <_ZNSt8_Rb_treeIiSt4pairIKiSsESt10_Select1stIS2_ESt4lessIiESaIS2_EE13_Rb_tree_implIS6_Lb0EED1Ev>:
 807406c:	55                   	push   %ebp
 807406d:	89 e5                	mov    %esp,%ebp
 807406f:	83 ec 18             	sub    $0x18,%esp
 8074072:	8b 45 08             	mov    0x8(%ebp),%eax
 8074075:	89 04 24             	mov    %eax,(%esp)
 8074078:	e8 1d 10 00 00       	call   807509a <_ZNSaISt13_Rb_tree_nodeISt4pairIKiSsEEED1Ev>
 807407d:	c9                   	leave  
 807407e:	c3                   	ret    
 807407f:	90                   	nop    

08074080 <_ZNSt8_Rb_treeIiSt4pairIKiSsESt10_Select1stIS2_ESt4lessIiESaIS2_EED1Ev>:
 8074080:	55                   	push   %ebp
 8074081:	89 e5                	mov    %esp,%ebp
 8074083:	53                   	push   %ebx
 8074084:	83 ec 14             	sub    $0x14,%esp
 8074087:	8b 45 08             	mov    0x8(%ebp),%eax
 807408a:	89 04 24             	mov    %eax,(%esp)
 807408d:	e8 6c 10 00 00       	call   80750fe <_ZNSt8_Rb_treeIiSt4pairIKiSsESt10_Select1stIS2_ESt4lessIiESaIS2_EE8_M_beginEv>
 8074092:	89 44 24 04          	mov    %eax,0x4(%esp)
 8074096:	8b 45 08             	mov    0x8(%ebp),%eax
 8074099:	89 04 24             	mov    %eax,(%esp)
 807409c:	e8 0d 10 00 00       	call   80750ae <_ZNSt8_Rb_treeIiSt4pairIKiSsESt10_Select1stIS2_ESt4lessIiESaIS2_EE8_M_eraseEPSt13_Rb_tree_nodeIS2_E>
 80740a1:	8b 45 08             	mov    0x8(%ebp),%eax
 80740a4:	89 04 24             	mov    %eax,(%esp)
 80740a7:	e8 c0 ff ff ff       	call   807406c <_ZNSt8_Rb_treeIiSt4pairIKiSsESt10_Select1stIS2_ESt4lessIiESaIS2_EE13_Rb_tree_implIS6_Lb0EED1Ev>
 80740ac:	eb 17                	jmp    80740c5 <_ZNSt8_Rb_treeIiSt4pairIKiSsESt10_Select1stIS2_ESt4lessIiESaIS2_EED1Ev+0x45>
 80740ae:	89 c3                	mov    %eax,%ebx
 80740b0:	8b 45 08             	mov    0x8(%ebp),%eax
 80740b3:	89 04 24             	mov    %eax,(%esp)
 80740b6:	e8 b1 ff ff ff       	call   807406c <_ZNSt8_Rb_treeIiSt4pairIKiSsESt10_Select1stIS2_ESt4lessIiESaIS2_EE13_Rb_tree_implIS6_Lb0EED1Ev>
 80740bb:	89 d8                	mov    %ebx,%eax
 80740bd:	89 04 24             	mov    %eax,(%esp)
 80740c0:	e8 8b da ff ff       	call   8071b50 <_Unwind_Resume@plt>
 80740c5:	83 c4 14             	add    $0x14,%esp
 80740c8:	5b                   	pop    %ebx
 80740c9:	5d                   	pop    %ebp
 80740ca:	c3                   	ret    
 80740cb:	90                   	nop    

080740cc <_ZNSt6vectorI7ZMQItemSaIS0_EEC1Ev>:
 80740cc:	55                   	push   %ebp
 80740cd:	89 e5                	mov    %esp,%ebp
 80740cf:	83 ec 18             	sub    $0x18,%esp
 80740d2:	8b 45 08             	mov    0x8(%ebp),%eax
 80740d5:	89 04 24             	mov    %eax,(%esp)
 80740d8:	e8 41 10 00 00       	call   807511e <_ZNSt12_Vector_baseI7ZMQItemSaIS0_EEC1Ev>
 80740dd:	c9                   	leave  
 80740de:	c3                   	ret    
 80740df:	90                   	nop    

080740e0 <_ZNSt6vectorI7ZMQItemSaIS0_EED1Ev>:
 80740e0:	55                   	push   %ebp
 80740e1:	89 e5                	mov    %esp,%ebp
 80740e3:	53                   	push   %ebx
 80740e4:	83 ec 14             	sub    $0x14,%esp
 80740e7:	8b 45 08             	mov    0x8(%ebp),%eax
 80740ea:	89 04 24             	mov    %eax,(%esp)
 80740ed:	e8 a6 10 00 00       	call   8075198 <_ZNSt12_Vector_baseI7ZMQItemSaIS0_EE19_M_get_Tp_allocatorEv>
 80740f2:	8b 55 08             	mov    0x8(%ebp),%edx
 80740f5:	8b 4a 04             	mov    0x4(%edx),%ecx
 80740f8:	8b 55 08             	mov    0x8(%ebp),%edx
 80740fb:	8b 12                	mov    (%edx),%edx
 80740fd:	89 44 24 08          	mov    %eax,0x8(%esp)
 8074101:	89 4c 24 04          	mov    %ecx,0x4(%esp)
 8074105:	89 14 24             	mov    %edx,(%esp)
 8074108:	e8 93 10 00 00       	call   80751a0 <_ZSt8_DestroyIP7ZMQItemS0_EvT_S2_RSaIT0_E>
 807410d:	8b 45 08             	mov    0x8(%ebp),%eax
 8074110:	89 04 24             	mov    %eax,(%esp)
 8074113:	e8 1a 10 00 00       	call   8075132 <_ZNSt12_Vector_baseI7ZMQItemSaIS0_EED1Ev>
 8074118:	eb 17                	jmp    8074131 <_ZNSt6vectorI7ZMQItemSaIS0_EED1Ev+0x51>
 807411a:	89 c3                	mov    %eax,%ebx
 807411c:	8b 45 08             	mov    0x8(%ebp),%eax
 807411f:	89 04 24             	mov    %eax,(%esp)
 8074122:	e8 0b 10 00 00       	call   8075132 <_ZNSt12_Vector_baseI7ZMQItemSaIS0_EED1Ev>
 8074127:	89 d8                	mov    %ebx,%eax
 8074129:	89 04 24             	mov    %eax,(%esp)
 807412c:	e8 1f da ff ff       	call   8071b50 <_Unwind_Resume@plt>
 8074131:	83 c4 14             	add    $0x14,%esp
 8074134:	5b                   	pop    %ebx
 8074135:	5d                   	pop    %ebp
 8074136:	c3                   	ret    
 8074137:	90                   	nop    

08074138 <_ZNSt6vectorI7ZMQItemSaIS0_EE9push_backERKS0_>:
 8074138:	55                   	push   %ebp
 8074139:	89 e5                	mov    %esp,%ebp
 807413b:	83 ec 28             	sub    $0x28,%esp
 807413e:	8b 45 08             	mov    0x8(%ebp),%eax
 8074141:	8b 50 04             	mov    0x4(%eax),%edx
 8074144:	8b 45 08             	mov    0x8(%ebp),%eax
 8074147:	8b 40 08             	mov    0x8(%eax),%eax
 807414a:	39 c2                	cmp    %eax,%edx
 807414c:	74 2d                	je     807417b <_ZNSt6vectorI7ZMQItemSaIS0_EE9push_backERKS0_+0x43>
 807414e:	8b 45 08             	mov    0x8(%ebp),%eax
 8074151:	8b 50 04             	mov    0x4(%eax),%edx
 8074154:	8b 45 08             	mov    0x8(%ebp),%eax
 8074157:	8b 4d 0c             	mov    0xc(%ebp),%ecx
 807415a:	89 4c 24 08          	mov    %ecx,0x8(%esp)
 807415e:	89 54 24 04          	mov    %edx,0x4(%esp)
 8074162:	89 04 24             	mov    %eax,(%esp)
 8074165:	e8 50 10 00 00       	call   80751ba <_ZN9__gnu_cxx14__alloc_traitsISaI7ZMQItemEE9constructIS1_EEvRS2_PS1_RKT_>
 807416a:	8b 45 08             	mov    0x8(%ebp),%eax
 807416d:	8b 40 04             	mov    0x4(%eax),%eax
 8074170:	8d 50 0c             	lea    0xc(%eax),%edx
 8074173:	8b 45 08             	mov    0x8(%ebp),%eax
 8074176:	89 50 04             	mov    %edx,0x4(%eax)
 8074179:	eb 2e                	jmp    80741a9 <_ZNSt6vectorI7ZMQItemSaIS0_EE9push_backERKS0_+0x71>
 807417b:	8d 45 f4             	lea    0xfffffff4(%ebp),%eax
 807417e:	8b 55 08             	mov    0x8(%ebp),%edx
 8074181:	89 54 24 04          	mov    %edx,0x4(%esp)
 8074185:	89 04 24             	mov    %eax,(%esp)
 8074188:	e8 83 13 00 00       	call   8075510 <_ZNSt6vectorI7ZMQItemSaIS0_EE3endEv>
 807418d:	83 ec 04             	sub    $0x4,%esp
 8074190:	8b 45 0c             	mov    0xc(%ebp),%eax
 8074193:	89 44 24 08          	mov    %eax,0x8(%esp)
 8074197:	8b 45 f4             	mov    0xfffffff4(%ebp),%eax
 807419a:	89 44 24 04          	mov    %eax,0x4(%esp)
 807419e:	8b 45 08             	mov    0x8(%ebp),%eax
 80741a1:	89 04 24             	mov    %eax,(%esp)
 80741a4:	e8 79 10 00 00       	call   8075222 <_ZNSt6vectorI7ZMQItemSaIS0_EE13_M_insert_auxEN9__gnu_cxx17__normal_iteratorIPS0_S2_EERKS0_>
 80741a9:	c9                   	leave  
 80741aa:	c3                   	ret    
 80741ab:	90                   	nop    

080741ac <_ZNSt6vectorIiSaIiEEC1ERKS1_>:
 80741ac:	55                   	push   %ebp
 80741ad:	89 e5                	mov    %esp,%ebp
 80741af:	56                   	push   %esi
 80741b0:	53                   	push   %ebx
 80741b1:	83 ec 20             	sub    $0x20,%esp
 80741b4:	8b 45 0c             	mov    0xc(%ebp),%eax
 80741b7:	89 04 24             	mov    %eax,(%esp)
 80741ba:	e8 95 13 00 00       	call   8075554 <_ZNKSt12_Vector_baseIiSaIiEE19_M_get_Tp_allocatorEv>
 80741bf:	89 04 24             	mov    %eax,(%esp)
 80741c2:	e8 84 13 00 00       	call   807554b <_ZN9__gnu_cxx14__alloc_traitsISaIiEE17_S_select_on_copyERKS1_>
 80741c7:	89 c3                	mov    %eax,%ebx
 80741c9:	8b 45 0c             	mov    0xc(%ebp),%eax
 80741cc:	89 04 24             	mov    %eax,(%esp)
 80741cf:	e8 5e 13 00 00       	call   8075532 <_ZNKSt6vectorIiSaIiEE4sizeEv>
 80741d4:	8b 55 08             	mov    0x8(%ebp),%edx
 80741d7:	89 5c 24 08          	mov    %ebx,0x8(%esp)
 80741db:	89 44 24 04          	mov    %eax,0x4(%esp)
 80741df:	89 14 24             	mov    %edx,(%esp)
 80741e2:	e8 89 13 00 00       	call   8075570 <_ZNSt12_Vector_baseIiSaIiEEC1EjRKS0_>
 80741e7:	8b 45 08             	mov    0x8(%ebp),%eax
 80741ea:	89 04 24             	mov    %eax,(%esp)
 80741ed:	e8 78 14 00 00       	call   807566a <_ZNSt12_Vector_baseIiSaIiEE19_M_get_Tp_allocatorEv>
 80741f2:	89 c3                	mov    %eax,%ebx
 80741f4:	8b 45 08             	mov    0x8(%ebp),%eax
 80741f7:	8b 30                	mov    (%eax),%esi
 80741f9:	8d 45 f0             	lea    0xfffffff0(%ebp),%eax
 80741fc:	8b 55 0c             	mov    0xc(%ebp),%edx
 80741ff:	89 54 24 04          	mov    %edx,0x4(%esp)
 8074203:	89 04 24             	mov    %eax,(%esp)
 8074206:	e8 37 14 00 00       	call   8075642 <_ZNKSt6vectorIiSaIiEE3endEv>
 807420b:	83 ec 04             	sub    $0x4,%esp
 807420e:	8d 45 f4             	lea    0xfffffff4(%ebp),%eax
 8074211:	8b 55 0c             	mov    0xc(%ebp),%edx
 8074214:	89 54 24 04          	mov    %edx,0x4(%esp)
 8074218:	89 04 24             	mov    %eax,(%esp)
 807421b:	e8 fa 13 00 00       	call   807561a <_ZNKSt6vectorIiSaIiEE5beginEv>
 8074220:	83 ec 04             	sub    $0x4,%esp
 8074223:	89 5c 24 0c          	mov    %ebx,0xc(%esp)
 8074227:	89 74 24 08          	mov    %esi,0x8(%esp)
 807422b:	8b 45 f0             	mov    0xfffffff0(%ebp),%eax
 807422e:	89 44 24 04          	mov    %eax,0x4(%esp)
 8074232:	8b 45 f4             	mov    0xfffffff4(%ebp),%eax
 8074235:	89 04 24             	mov    %eax,(%esp)
 8074238:	e8 35 14 00 00       	call   8075672 <_ZSt22__uninitialized_copy_aIN9__gnu_cxx17__normal_iteratorIPKiSt6vectorIiSaIiEEEEPiiET0_T_SA_S9_RSaIT1_E>
 807423d:	8b 55 08             	mov    0x8(%ebp),%edx
 8074240:	89 42 04             	mov    %eax,0x4(%edx)
 8074243:	eb 17                	jmp    807425c <_ZNSt6vectorIiSaIiEEC1ERKS1_+0xb0>
 8074245:	89 c3                	mov    %eax,%ebx
 8074247:	8b 45 08             	mov    0x8(%ebp),%eax
 807424a:	89 04 24             	mov    %eax,(%esp)
 807424d:	e8 68 13 00 00       	call   80755ba <_ZNSt12_Vector_baseIiSaIiEED1Ev>
 8074252:	89 d8                	mov    %ebx,%eax
 8074254:	89 04 24             	mov    %eax,(%esp)
 8074257:	e8 f4 d8 ff ff       	call   8071b50 <_Unwind_Resume@plt>
 807425c:	8d 65 f8             	lea    0xfffffff8(%ebp),%esp
 807425f:	5b                   	pop    %ebx
 8074260:	5e                   	pop    %esi
 8074261:	5d                   	pop    %ebp
 8074262:	c3                   	ret    
 8074263:	90                   	nop    

08074264 <_ZNSt6vectorIiSaIiEED1Ev>:
 8074264:	55                   	push   %ebp
 8074265:	89 e5                	mov    %esp,%ebp
 8074267:	53                   	push   %ebx
 8074268:	83 ec 14             	sub    $0x14,%esp
 807426b:	8b 45 08             	mov    0x8(%ebp),%eax
 807426e:	89 04 24             	mov    %eax,(%esp)
 8074271:	e8 f4 13 00 00       	call   807566a <_ZNSt12_Vector_baseIiSaIiEE19_M_get_Tp_allocatorEv>
 8074276:	8b 55 08             	mov    0x8(%ebp),%edx
 8074279:	8b 4a 04             	mov    0x4(%edx),%ecx
 807427c:	8b 55 08             	mov    0x8(%ebp),%edx
 807427f:	8b 12                	mov    (%edx),%edx
 8074281:	89 44 24 08          	mov    %eax,0x8(%esp)
 8074285:	89 4c 24 04          	mov    %ecx,0x4(%esp)
 8074289:	89 14 24             	mov    %edx,(%esp)
 807428c:	e8 02 14 00 00       	call   8075693 <_ZSt8_DestroyIPiiEvT_S1_RSaIT0_E>
 8074291:	8b 45 08             	mov    0x8(%ebp),%eax
 8074294:	89 04 24             	mov    %eax,(%esp)
 8074297:	e8 1e 13 00 00       	call   80755ba <_ZNSt12_Vector_baseIiSaIiEED1Ev>
 807429c:	eb 17                	jmp    80742b5 <_ZNSt6vectorIiSaIiEED1Ev+0x51>
 807429e:	89 c3                	mov    %eax,%ebx
 80742a0:	8b 45 08             	mov    0x8(%ebp),%eax
 80742a3:	89 04 24             	mov    %eax,(%esp)
 80742a6:	e8 0f 13 00 00       	call   80755ba <_ZNSt12_Vector_baseIiSaIiEED1Ev>
 80742ab:	89 d8                	mov    %ebx,%eax
 80742ad:	89 04 24             	mov    %eax,(%esp)
 80742b0:	e8 9b d8 ff ff       	call   8071b50 <_Unwind_Resume@plt>
 80742b5:	83 c4 14             	add    $0x14,%esp
 80742b8:	5b                   	pop    %ebx
 80742b9:	5d                   	pop    %ebp
 80742ba:	c3                   	ret    
 80742bb:	90                   	nop    

080742bc <_ZNSt5dequeI7XML_ZMQSaIS0_EEC1ERKS2_>:
 80742bc:	55                   	push   %ebp
 80742bd:	89 e5                	mov    %esp,%ebp
 80742bf:	53                   	push   %ebx
 80742c0:	83 ec 74             	sub    $0x74,%esp
 80742c3:	8b 45 0c             	mov    0xc(%ebp),%eax
 80742c6:	89 04 24             	mov    %eax,(%esp)
 80742c9:	e8 e8 13 00 00       	call   80756b6 <_ZNKSt5dequeI7XML_ZMQSaIS0_EE4sizeEv>
 80742ce:	89 c3                	mov    %eax,%ebx
 80742d0:	8b 45 0c             	mov    0xc(%ebp),%eax
 80742d3:	89 04 24             	mov    %eax,(%esp)
 80742d6:	e8 d3 13 00 00       	call   80756ae <_ZNKSt11_Deque_baseI7XML_ZMQSaIS0_EE19_M_get_Tp_allocatorEv>
 80742db:	8b 55 08             	mov    0x8(%ebp),%edx
 80742de:	89 5c 24 08          	mov    %ebx,0x8(%esp)
 80742e2:	89 44 24 04          	mov    %eax,0x4(%esp)
 80742e6:	89 14 24             	mov    %edx,(%esp)
 80742e9:	e8 e8 13 00 00       	call   80756d6 <_ZNSt11_Deque_baseI7XML_ZMQSaIS0_EEC1ERKS1_j>
 80742ee:	8b 45 08             	mov    0x8(%ebp),%eax
 80742f1:	89 04 24             	mov    %eax,(%esp)
 80742f4:	e8 9f 0c 00 00       	call   8074f98 <_ZNSt11_Deque_baseI7XML_ZMQSaIS0_EE19_M_get_Tp_allocatorEv>
 80742f9:	89 c3                	mov    %eax,%ebx
 80742fb:	8b 45 08             	mov    0x8(%ebp),%eax
 80742fe:	83 c0 08             	add    $0x8,%eax
 8074301:	89 44 24 04          	mov    %eax,0x4(%esp)
 8074305:	8d 45 c8             	lea    0xffffffc8(%ebp),%eax
 8074308:	89 04 24             	mov    %eax,(%esp)
 807430b:	e8 5a 06 00 00       	call   807496a <_ZNSt15_Deque_iteratorI7XML_ZMQRS0_PS0_EC1ERKS3_>
 8074310:	8d 45 d8             	lea    0xffffffd8(%ebp),%eax
 8074313:	8b 55 0c             	mov    0xc(%ebp),%edx
 8074316:	89 54 24 04          	mov    %edx,0x4(%esp)
 807431a:	89 04 24             	mov    %eax,(%esp)
 807431d:	e8 20 14 00 00       	call   8075742 <_ZNKSt5dequeI7XML_ZMQSaIS0_EE3endEv>
 8074322:	83 ec 04             	sub    $0x4,%esp
 8074325:	8d 45 e8             	lea    0xffffffe8(%ebp),%eax
 8074328:	8b 55 0c             	mov    0xc(%ebp),%edx
 807432b:	89 54 24 04          	mov    %edx,0x4(%esp)
 807432f:	89 04 24             	mov    %eax,(%esp)
 8074332:	e8 e9 13 00 00       	call   8075720 <_ZNKSt5dequeI7XML_ZMQSaIS0_EE5beginEv>
 8074337:	83 ec 04             	sub    $0x4,%esp
 807433a:	8d 45 b8             	lea    0xffffffb8(%ebp),%eax
 807433d:	89 5c 24 28          	mov    %ebx,0x28(%esp)
 8074341:	8d 55 c8             	lea    0xffffffc8(%ebp),%edx
 8074344:	89 54 24 24          	mov    %edx,0x24(%esp)
 8074348:	8b 55 d8             	mov    0xffffffd8(%ebp),%edx
 807434b:	89 54 24 14          	mov    %edx,0x14(%esp)
 807434f:	8b 55 dc             	mov    0xffffffdc(%ebp),%edx
 8074352:	89 54 24 18          	mov    %edx,0x18(%esp)
 8074356:	8b 55 e0             	mov    0xffffffe0(%ebp),%edx
 8074359:	89 54 24 1c          	mov    %edx,0x1c(%esp)
 807435d:	8b 55 e4             	mov    0xffffffe4(%ebp),%edx
 8074360:	89 54 24 20          	mov    %edx,0x20(%esp)
 8074364:	8b 55 e8             	mov    0xffffffe8(%ebp),%edx
 8074367:	89 54 24 04          	mov    %edx,0x4(%esp)
 807436b:	8b 55 ec             	mov    0xffffffec(%ebp),%edx
 807436e:	89 54 24 08          	mov    %edx,0x8(%esp)
 8074372:	8b 55 f0             	mov    0xfffffff0(%ebp),%edx
 8074375:	89 54 24 0c          	mov    %edx,0xc(%esp)
 8074379:	8b 55 f4             	mov    0xfffffff4(%ebp),%edx
 807437c:	89 54 24 10          	mov    %edx,0x10(%esp)
 8074380:	89 04 24             	mov    %eax,(%esp)
 8074383:	e8 dc 13 00 00       	call   8075764 <_ZSt22__uninitialized_copy_aISt15_Deque_iteratorI7XML_ZMQRKS1_PS2_ES0_IS1_RS1_PS1_ES1_ET0_T_SA_S9_RSaIT1_E>
 8074388:	83 ec 04             	sub    $0x4,%esp
 807438b:	eb 17                	jmp    80743a4 <_ZNSt5dequeI7XML_ZMQSaIS0_EEC1ERKS2_+0xe8>
 807438d:	89 c3                	mov    %eax,%ebx
 807438f:	8b 45 08             	mov    0x8(%ebp),%eax
 8074392:	89 04 24             	mov    %eax,(%esp)
 8074395:	e8 84 0b 00 00       	call   8074f1e <_ZNSt11_Deque_baseI7XML_ZMQSaIS0_EED1Ev>
 807439a:	89 d8                	mov    %ebx,%eax
 807439c:	89 04 24             	mov    %eax,(%esp)
 807439f:	e8 ac d7 ff ff       	call   8071b50 <_Unwind_Resume@plt>
 80743a4:	8b 5d fc             	mov    0xfffffffc(%ebp),%ebx
 80743a7:	c9                   	leave  
 80743a8:	c3                   	ret    
 80743a9:	90                   	nop    

080743aa <_ZNSt6vectorISsSaISsEEC1ERKS1_>:
 80743aa:	55                   	push   %ebp
 80743ab:	89 e5                	mov    %esp,%ebp
 80743ad:	56                   	push   %esi
 80743ae:	53                   	push   %ebx
 80743af:	83 ec 20             	sub    $0x20,%esp
 80743b2:	8b 45 0c             	mov    0xc(%ebp),%eax
 80743b5:	89 04 24             	mov    %eax,(%esp)
 80743b8:	e8 3f 14 00 00       	call   80757fc <_ZNKSt12_Vector_baseISsSaISsEE19_M_get_Tp_allocatorEv>
 80743bd:	89 04 24             	mov    %eax,(%esp)
 80743c0:	e8 2e 14 00 00       	call   80757f3 <_ZN9__gnu_cxx14__alloc_traitsISaISsEE17_S_select_on_copyERKS1_>
 80743c5:	89 c3                	mov    %eax,%ebx
 80743c7:	8b 45 0c             	mov    0xc(%ebp),%eax
 80743ca:	89 04 24             	mov    %eax,(%esp)
 80743cd:	e8 08 14 00 00       	call   80757da <_ZNKSt6vectorISsSaISsEE4sizeEv>
 80743d2:	8b 55 08             	mov    0x8(%ebp),%edx
 80743d5:	89 5c 24 08          	mov    %ebx,0x8(%esp)
 80743d9:	89 44 24 04          	mov    %eax,0x4(%esp)
 80743dd:	89 14 24             	mov    %edx,(%esp)
 80743e0:	e8 1f 14 00 00       	call   8075804 <_ZNSt12_Vector_baseISsSaISsEEC1EjRKS0_>
 80743e5:	8b 45 08             	mov    0x8(%ebp),%eax
 80743e8:	89 04 24             	mov    %eax,(%esp)
 80743eb:	e8 88 0c 00 00       	call   8075078 <_ZNSt12_Vector_baseISsSaISsEE19_M_get_Tp_allocatorEv>
 80743f0:	89 c3                	mov    %eax,%ebx
 80743f2:	8b 45 08             	mov    0x8(%ebp),%eax
 80743f5:	8b 30                	mov    (%eax),%esi
 80743f7:	8d 45 f0             	lea    0xfffffff0(%ebp),%eax
 80743fa:	8b 55 0c             	mov    0xc(%ebp),%edx
 80743fd:	89 54 24 04          	mov    %edx,0x4(%esp)
 8074401:	89 04 24             	mov    %eax,(%esp)
 8074404:	e8 6d 14 00 00       	call   8075876 <_ZNKSt6vectorISsSaISsEE3endEv>
 8074409:	83 ec 04             	sub    $0x4,%esp
 807440c:	8d 45 f4             	lea    0xfffffff4(%ebp),%eax
 807440f:	8b 55 0c             	mov    0xc(%ebp),%edx
 8074412:	89 54 24 04          	mov    %edx,0x4(%esp)
 8074416:	89 04 24             	mov    %eax,(%esp)
 8074419:	e8 30 14 00 00       	call   807584e <_ZNKSt6vectorISsSaISsEE5beginEv>
 807441e:	83 ec 04             	sub    $0x4,%esp
 8074421:	89 5c 24 0c          	mov    %ebx,0xc(%esp)
 8074425:	89 74 24 08          	mov    %esi,0x8(%esp)
 8074429:	8b 45 f0             	mov    0xfffffff0(%ebp),%eax
 807442c:	89 44 24 04          	mov    %eax,0x4(%esp)
 8074430:	8b 45 f4             	mov    0xfffffff4(%ebp),%eax
 8074433:	89 04 24             	mov    %eax,(%esp)
 8074436:	e8 63 14 00 00       	call   807589e <_ZSt22__uninitialized_copy_aIN9__gnu_cxx17__normal_iteratorIPKSsSt6vectorISsSaISsEEEEPSsSsET0_T_SA_S9_RSaIT1_E>
 807443b:	8b 55 08             	mov    0x8(%ebp),%edx
 807443e:	89 42 04             	mov    %eax,0x4(%edx)
 8074441:	eb 17                	jmp    807445a <_ZNSt6vectorISsSaISsEEC1ERKS1_+0xb0>
 8074443:	89 c3                	mov    %eax,%ebx
 8074445:	8b 45 08             	mov    0x8(%ebp),%eax
 8074448:	89 04 24             	mov    %eax,(%esp)
 807444b:	e8 c8 0b 00 00       	call   8075018 <_ZNSt12_Vector_baseISsSaISsEED1Ev>
 8074450:	89 d8                	mov    %ebx,%eax
 8074452:	89 04 24             	mov    %eax,(%esp)
 8074455:	e8 f6 d6 ff ff       	call   8071b50 <_Unwind_Resume@plt>
 807445a:	8d 65 f8             	lea    0xfffffff8(%ebp),%esp
 807445d:	5b                   	pop    %ebx
 807445e:	5e                   	pop    %esi
 807445f:	5d                   	pop    %ebp
 8074460:	c3                   	ret    
 8074461:	90                   	nop    

08074462 <_ZNSt3mapIiSsSt4lessIiESaISt4pairIKiSsEEEC1ERKS6_>:
 8074462:	55                   	push   %ebp
 8074463:	89 e5                	mov    %esp,%ebp
 8074465:	83 ec 18             	sub    $0x18,%esp
 8074468:	8b 55 0c             	mov    0xc(%ebp),%edx
 807446b:	8b 45 08             	mov    0x8(%ebp),%eax
 807446e:	89 54 24 04          	mov    %edx,0x4(%esp)
 8074472:	89 04 24             	mov    %eax,(%esp)
 8074475:	e8 46 14 00 00       	call   80758c0 <_ZNSt8_Rb_treeIiSt4pairIKiSsESt10_Select1stIS2_ESt4lessIiESaIS2_EEC1ERKS8_>
 807447a:	c9                   	leave  
 807447b:	c3                   	ret    

0807447c <_ZNSt5dequeIP5ParseSaIS1_EEC1Ev>:
 807447c:	55                   	push   %ebp
 807447d:	89 e5                	mov    %esp,%ebp
 807447f:	83 ec 18             	sub    $0x18,%esp
 8074482:	8b 45 08             	mov    0x8(%ebp),%eax
 8074485:	89 04 24             	mov    %eax,(%esp)
 8074488:	e8 37 15 00 00       	call   80759c4 <_ZNSt11_Deque_baseIP5ParseSaIS1_EEC1Ev>
 807448d:	c9                   	leave  
 807448e:	c3                   	ret    
 807448f:	90                   	nop    

08074490 <_ZNSt5dequeIP5ParseSaIS1_EED1Ev>:
 8074490:	55                   	push   %ebp
 8074491:	89 e5                	mov    %esp,%ebp
 8074493:	53                   	push   %ebx
 8074494:	83 ec 34             	sub    $0x34,%esp
 8074497:	8b 45 08             	mov    0x8(%ebp),%eax
 807449a:	89 04 24             	mov    %eax,(%esp)
 807449d:	e8 24 16 00 00       	call   8075ac6 <_ZNSt11_Deque_baseIP5ParseSaIS1_EE19_M_get_Tp_allocatorEv>
 80744a2:	89 c3                	mov    %eax,%ebx
 80744a4:	8d 45 d8             	lea    0xffffffd8(%ebp),%eax
 80744a7:	8b 55 08             	mov    0x8(%ebp),%edx
 80744aa:	89 54 24 04          	mov    %edx,0x4(%esp)
 80744ae:	89 04 24             	mov    %eax,(%esp)
 80744b1:	e8 ee 15 00 00       	call   8075aa4 <_ZNSt5dequeIP5ParseSaIS1_EE3endEv>
 80744b6:	83 ec 04             	sub    $0x4,%esp
 80744b9:	8d 45 e8             	lea    0xffffffe8(%ebp),%eax
 80744bc:	8b 55 08             	mov    0x8(%ebp),%edx
 80744bf:	89 54 24 04          	mov    %edx,0x4(%esp)
 80744c3:	89 04 24             	mov    %eax,(%esp)
 80744c6:	e8 b7 15 00 00       	call   8075a82 <_ZNSt5dequeIP5ParseSaIS1_EE5beginEv>
 80744cb:	83 ec 04             	sub    $0x4,%esp
 80744ce:	89 5c 24 0c          	mov    %ebx,0xc(%esp)
 80744d2:	8d 45 d8             	lea    0xffffffd8(%ebp),%eax
 80744d5:	89 44 24 08          	mov    %eax,0x8(%esp)
 80744d9:	8d 45 e8             	lea    0xffffffe8(%ebp),%eax
 80744dc:	89 44 24 04          	mov    %eax,0x4(%esp)
 80744e0:	8b 45 08             	mov    0x8(%ebp),%eax
 80744e3:	89 04 24             	mov    %eax,(%esp)
 80744e6:	e8 17 16 00 00       	call   8075b02 <_ZNSt5dequeIP5ParseSaIS1_EE15_M_destroy_dataESt15_Deque_iteratorIS1_RS1_PS1_ES7_RKS2_>
 80744eb:	8b 45 08             	mov    0x8(%ebp),%eax
 80744ee:	89 04 24             	mov    %eax,(%esp)
 80744f1:	e8 12 15 00 00       	call   8075a08 <_ZNSt11_Deque_baseIP5ParseSaIS1_EED1Ev>
 80744f6:	eb 1d                	jmp    8074515 <_ZNSt5dequeIP5ParseSaIS1_EED1Ev+0x85>
 80744f8:	eb 00                	jmp    80744fa <_ZNSt5dequeIP5ParseSaIS1_EED1Ev+0x6a>
 80744fa:	89 c3                	mov    %eax,%ebx
 80744fc:	eb 02                	jmp    8074500 <_ZNSt5dequeIP5ParseSaIS1_EED1Ev+0x70>
 80744fe:	89 c3                	mov    %eax,%ebx
 8074500:	8b 45 08             	mov    0x8(%ebp),%eax
 8074503:	89 04 24             	mov    %eax,(%esp)
 8074506:	e8 fd 14 00 00       	call   8075a08 <_ZNSt11_Deque_baseIP5ParseSaIS1_EED1Ev>
 807450b:	89 d8                	mov    %ebx,%eax
 807450d:	89 04 24             	mov    %eax,(%esp)
 8074510:	e8 3b d6 ff ff       	call   8071b50 <_Unwind_Resume@plt>
 8074515:	8b 5d fc             	mov    0xfffffffc(%ebp),%ebx
 8074518:	c9                   	leave  
 8074519:	c3                   	ret    

0807451a <_ZNSt5dequeIP10LuaRoutineSaIS1_EEC1Ev>:
 807451a:	55                   	push   %ebp
 807451b:	89 e5                	mov    %esp,%ebp
 807451d:	83 ec 18             	sub    $0x18,%esp
 8074520:	8b 45 08             	mov    0x8(%ebp),%eax
 8074523:	89 04 24             	mov    %eax,(%esp)
 8074526:	e8 f3 15 00 00       	call   8075b1e <_ZNSt11_Deque_baseIP10LuaRoutineSaIS1_EEC1Ev>
 807452b:	c9                   	leave  
 807452c:	c3                   	ret    
 807452d:	90                   	nop    

0807452e <_ZNSt5dequeIP10LuaRoutineSaIS1_EED1Ev>:
 807452e:	55                   	push   %ebp
 807452f:	89 e5                	mov    %esp,%ebp
 8074531:	53                   	push   %ebx
 8074532:	83 ec 34             	sub    $0x34,%esp
 8074535:	8b 45 08             	mov    0x8(%ebp),%eax
 8074538:	89 04 24             	mov    %eax,(%esp)
 807453b:	e8 e0 16 00 00       	call   8075c20 <_ZNSt11_Deque_baseIP10LuaRoutineSaIS1_EE19_M_get_Tp_allocatorEv>
 8074540:	89 c3                	mov    %eax,%ebx
 8074542:	8d 45 d8             	lea    0xffffffd8(%ebp),%eax
 8074545:	8b 55 08             	mov    0x8(%ebp),%edx
 8074548:	89 54 24 04          	mov    %edx,0x4(%esp)
 807454c:	89 04 24             	mov    %eax,(%esp)
 807454f:	e8 aa 16 00 00       	call   8075bfe <_ZNSt5dequeIP10LuaRoutineSaIS1_EE3endEv>
 8074554:	83 ec 04             	sub    $0x4,%esp
 8074557:	8d 45 e8             	lea    0xffffffe8(%ebp),%eax
 807455a:	8b 55 08             	mov    0x8(%ebp),%edx
 807455d:	89 54 24 04          	mov    %edx,0x4(%esp)
 8074561:	89 04 24             	mov    %eax,(%esp)
 8074564:	e8 73 16 00 00       	call   8075bdc <_ZNSt5dequeIP10LuaRoutineSaIS1_EE5beginEv>
 8074569:	83 ec 04             	sub    $0x4,%esp
 807456c:	89 5c 24 0c          	mov    %ebx,0xc(%esp)
 8074570:	8d 45 d8             	lea    0xffffffd8(%ebp),%eax
 8074573:	89 44 24 08          	mov    %eax,0x8(%esp)
 8074577:	8d 45 e8             	lea    0xffffffe8(%ebp),%eax
 807457a:	89 44 24 04          	mov    %eax,0x4(%esp)
 807457e:	8b 45 08             	mov    0x8(%ebp),%eax
 8074581:	89 04 24             	mov    %eax,(%esp)
 8074584:	e8 d3 16 00 00       	call   8075c5c <_ZNSt5dequeIP10LuaRoutineSaIS1_EE15_M_destroy_dataESt15_Deque_iteratorIS1_RS1_PS1_ES7_RKS2_>
 8074589:	8b 45 08             	mov    0x8(%ebp),%eax
 807458c:	89 04 24             	mov    %eax,(%esp)
 807458f:	e8 ce 15 00 00       	call   8075b62 <_ZNSt11_Deque_baseIP10LuaRoutineSaIS1_EED1Ev>
 8074594:	eb 1d                	jmp    80745b3 <_ZNSt5dequeIP10LuaRoutineSaIS1_EED1Ev+0x85>
 8074596:	eb 00                	jmp    8074598 <_ZNSt5dequeIP10LuaRoutineSaIS1_EED1Ev+0x6a>
 8074598:	89 c3                	mov    %eax,%ebx
 807459a:	eb 02                	jmp    807459e <_ZNSt5dequeIP10LuaRoutineSaIS1_EED1Ev+0x70>
 807459c:	89 c3                	mov    %eax,%ebx
 807459e:	8b 45 08             	mov    0x8(%ebp),%eax
 80745a1:	89 04 24             	mov    %eax,(%esp)
 80745a4:	e8 b9 15 00 00       	call   8075b62 <_ZNSt11_Deque_baseIP10LuaRoutineSaIS1_EED1Ev>
 80745a9:	89 d8                	mov    %ebx,%eax
 80745ab:	89 04 24             	mov    %eax,(%esp)
 80745ae:	e8 9d d5 ff ff       	call   8071b50 <_Unwind_Resume@plt>
 80745b3:	8b 5d fc             	mov    0xfffffffc(%ebp),%ebx
 80745b6:	c9                   	leave  
 80745b7:	c3                   	ret    

080745b8 <_ZNSt5dequeIPN3zmq8socket_tESaIS2_EEC1Ev>:
 80745b8:	55                   	push   %ebp
 80745b9:	89 e5                	mov    %esp,%ebp
 80745bb:	83 ec 18             	sub    $0x18,%esp
 80745be:	8b 45 08             	mov    0x8(%ebp),%eax
 80745c1:	89 04 24             	mov    %eax,(%esp)
 80745c4:	e8 af 16 00 00       	call   8075c78 <_ZNSt11_Deque_baseIPN3zmq8socket_tESaIS2_EEC1Ev>
 80745c9:	c9                   	leave  
 80745ca:	c3                   	ret    
 80745cb:	90                   	nop    

080745cc <_ZNSt5dequeIPN3zmq8socket_tESaIS2_EED1Ev>:
 80745cc:	55                   	push   %ebp
 80745cd:	89 e5                	mov    %esp,%ebp
 80745cf:	53                   	push   %ebx
 80745d0:	83 ec 34             	sub    $0x34,%esp
 80745d3:	8b 45 08             	mov    0x8(%ebp),%eax
 80745d6:	89 04 24             	mov    %eax,(%esp)
 80745d9:	e8 9c 17 00 00       	call   8075d7a <_ZNSt11_Deque_baseIPN3zmq8socket_tESaIS2_EE19_M_get_Tp_allocatorEv>
 80745de:	89 c3                	mov    %eax,%ebx
 80745e0:	8d 45 d8             	lea    0xffffffd8(%ebp),%eax
 80745e3:	8b 55 08             	mov    0x8(%ebp),%edx
 80745e6:	89 54 24 04          	mov    %edx,0x4(%esp)
 80745ea:	89 04 24             	mov    %eax,(%esp)
 80745ed:	e8 66 17 00 00       	call   8075d58 <_ZNSt5dequeIPN3zmq8socket_tESaIS2_EE3endEv>
 80745f2:	83 ec 04             	sub    $0x4,%esp
 80745f5:	8d 45 e8             	lea    0xffffffe8(%ebp),%eax
 80745f8:	8b 55 08             	mov    0x8(%ebp),%edx
 80745fb:	89 54 24 04          	mov    %edx,0x4(%esp)
 80745ff:	89 04 24             	mov    %eax,(%esp)
 8074602:	e8 2f 17 00 00       	call   8075d36 <_ZNSt5dequeIPN3zmq8socket_tESaIS2_EE5beginEv>
 8074607:	83 ec 04             	sub    $0x4,%esp
 807460a:	89 5c 24 0c          	mov    %ebx,0xc(%esp)
 807460e:	8d 45 d8             	lea    0xffffffd8(%ebp),%eax
 8074611:	89 44 24 08          	mov    %eax,0x8(%esp)
 8074615:	8d 45 e8             	lea    0xffffffe8(%ebp),%eax
 8074618:	89 44 24 04          	mov    %eax,0x4(%esp)
 807461c:	8b 45 08             	mov    0x8(%ebp),%eax
 807461f:	89 04 24             	mov    %eax,(%esp)
 8074622:	e8 8f 17 00 00       	call   8075db6 <_ZNSt5dequeIPN3zmq8socket_tESaIS2_EE15_M_destroy_dataESt15_Deque_iteratorIS2_RS2_PS2_ES8_RKS3_>
 8074627:	8b 45 08             	mov    0x8(%ebp),%eax
 807462a:	89 04 24             	mov    %eax,(%esp)
 807462d:	e8 8a 16 00 00       	call   8075cbc <_ZNSt11_Deque_baseIPN3zmq8socket_tESaIS2_EED1Ev>
 8074632:	eb 1d                	jmp    8074651 <_ZNSt5dequeIPN3zmq8socket_tESaIS2_EED1Ev+0x85>
 8074634:	eb 00                	jmp    8074636 <_ZNSt5dequeIPN3zmq8socket_tESaIS2_EED1Ev+0x6a>
 8074636:	89 c3                	mov    %eax,%ebx
 8074638:	eb 02                	jmp    807463c <_ZNSt5dequeIPN3zmq8socket_tESaIS2_EED1Ev+0x70>
 807463a:	89 c3                	mov    %eax,%ebx
 807463c:	8b 45 08             	mov    0x8(%ebp),%eax
 807463f:	89 04 24             	mov    %eax,(%esp)
 8074642:	e8 75 16 00 00       	call   8075cbc <_ZNSt11_Deque_baseIPN3zmq8socket_tESaIS2_EED1Ev>
 8074647:	89 d8                	mov    %ebx,%eax
 8074649:	89 04 24             	mov    %eax,(%esp)
 807464c:	e8 ff d4 ff ff       	call   8071b50 <_Unwind_Resume@plt>
 8074651:	8b 5d fc             	mov    0xfffffffc(%ebp),%ebx
 8074654:	c9                   	leave  
 8074655:	c3                   	ret    

08074656 <_ZNSt3mapISsPN3zmq8socket_tESt4lessISsESaISt4pairIKSsS2_EEEC1Ev>:
 8074656:	55                   	push   %ebp
 8074657:	89 e5                	mov    %esp,%ebp
 8074659:	83 ec 18             	sub    $0x18,%esp
 807465c:	8b 45 08             	mov    0x8(%ebp),%eax
 807465f:	89 04 24             	mov    %eax,(%esp)
 8074662:	e8 57 17 00 00       	call   8075dbe <_ZNSt8_Rb_treeISsSt4pairIKSsPN3zmq8socket_tEESt10_Select1stIS5_ESt4lessISsESaIS5_EEC1Ev>
 8074667:	c9                   	leave  
 8074668:	c3                   	ret    
 8074669:	90                   	nop    

0807466a <_ZNSt8_Rb_treeISsSt4pairIKSsPN3zmq8socket_tEESt10_Select1stIS5_ESt4lessISsESaIS5_EE13_Rb_tree_implIS9_Lb0EED1Ev>:
 807466a:	55                   	push   %ebp
 807466b:	89 e5                	mov    %esp,%ebp
 807466d:	83 ec 18             	sub    $0x18,%esp
 8074670:	8b 45 08             	mov    0x8(%ebp),%eax
 8074673:	89 04 24             	mov    %eax,(%esp)
 8074676:	e8 57 17 00 00       	call   8075dd2 <_ZNSaISt13_Rb_tree_nodeISt4pairIKSsPN3zmq8socket_tEEEED1Ev>
 807467b:	c9                   	leave  
 807467c:	c3                   	ret    
 807467d:	90                   	nop    

0807467e <_ZNSt8_Rb_treeISsSt4pairIKSsPN3zmq8socket_tEESt10_Select1stIS5_ESt4lessISsESaIS5_EED1Ev>:
 807467e:	55                   	push   %ebp
 807467f:	89 e5                	mov    %esp,%ebp
 8074681:	53                   	push   %ebx
 8074682:	83 ec 14             	sub    $0x14,%esp
 8074685:	8b 45 08             	mov    0x8(%ebp),%eax
 8074688:	89 04 24             	mov    %eax,(%esp)
 807468b:	e8 a6 17 00 00       	call   8075e36 <_ZNSt8_Rb_treeISsSt4pairIKSsPN3zmq8socket_tEESt10_Select1stIS5_ESt4lessISsESaIS5_EE8_M_beginEv>
 8074690:	89 44 24 04          	mov    %eax,0x4(%esp)
 8074694:	8b 45 08             	mov    0x8(%ebp),%eax
 8074697:	89 04 24             	mov    %eax,(%esp)
 807469a:	e8 47 17 00 00       	call   8075de6 <_ZNSt8_Rb_treeISsSt4pairIKSsPN3zmq8socket_tEESt10_Select1stIS5_ESt4lessISsESaIS5_EE8_M_eraseEPSt13_Rb_tree_nodeIS5_E>
 807469f:	8b 45 08             	mov    0x8(%ebp),%eax
 80746a2:	89 04 24             	mov    %eax,(%esp)
 80746a5:	e8 c0 ff ff ff       	call   807466a <_ZNSt8_Rb_treeISsSt4pairIKSsPN3zmq8socket_tEESt10_Select1stIS5_ESt4lessISsESaIS5_EE13_Rb_tree_implIS9_Lb0EED1Ev>
 80746aa:	eb 17                	jmp    80746c3 <_ZNSt8_Rb_treeISsSt4pairIKSsPN3zmq8socket_tEESt10_Select1stIS5_ESt4lessISsESaIS5_EED1Ev+0x45>
 80746ac:	89 c3                	mov    %eax,%ebx
 80746ae:	8b 45 08             	mov    0x8(%ebp),%eax
 80746b1:	89 04 24             	mov    %eax,(%esp)
 80746b4:	e8 b1 ff ff ff       	call   807466a <_ZNSt8_Rb_treeISsSt4pairIKSsPN3zmq8socket_tEESt10_Select1stIS5_ESt4lessISsESaIS5_EE13_Rb_tree_implIS9_Lb0EED1Ev>
 80746b9:	89 d8                	mov    %ebx,%eax
 80746bb:	89 04 24             	mov    %eax,(%esp)
 80746be:	e8 8d d4 ff ff       	call   8071b50 <_Unwind_Resume@plt>
 80746c3:	83 c4 14             	add    $0x14,%esp
 80746c6:	5b                   	pop    %ebx
 80746c7:	5d                   	pop    %ebp
 80746c8:	c3                   	ret    
 80746c9:	90                   	nop    

080746ca <_ZNKSt5dequeIPN3zmq8socket_tESaIS2_EE5emptyEv>:
 80746ca:	55                   	push   %ebp
 80746cb:	89 e5                	mov    %esp,%ebp
 80746cd:	83 ec 18             	sub    $0x18,%esp
 80746d0:	8b 45 08             	mov    0x8(%ebp),%eax
 80746d3:	8d 50 08             	lea    0x8(%eax),%edx
 80746d6:	8b 45 08             	mov    0x8(%ebp),%eax
 80746d9:	83 c0 18             	add    $0x18,%eax
 80746dc:	89 54 24 04          	mov    %edx,0x4(%esp)
 80746e0:	89 04 24             	mov    %eax,(%esp)
 80746e3:	e8 59 17 00 00       	call   8075e41 <_ZSteqIPN3zmq8socket_tERS2_PS2_EbRKSt15_Deque_iteratorIT_T0_T1_ESB_>
 80746e8:	c9                   	leave  
 80746e9:	c3                   	ret    

080746ea <_ZNSt5dequeIPN3zmq8socket_tESaIS2_EE5frontEv>:
 80746ea:	55                   	push   %ebp
 80746eb:	89 e5                	mov    %esp,%ebp
 80746ed:	83 ec 28             	sub    $0x28,%esp
 80746f0:	8d 45 e8             	lea    0xffffffe8(%ebp),%eax
 80746f3:	8b 55 08             	mov    0x8(%ebp),%edx
 80746f6:	89 54 24 04          	mov    %edx,0x4(%esp)
 80746fa:	89 04 24             	mov    %eax,(%esp)
 80746fd:	e8 34 16 00 00       	call   8075d36 <_ZNSt5dequeIPN3zmq8socket_tESaIS2_EE5beginEv>
 8074702:	83 ec 04             	sub    $0x4,%esp
 8074705:	8d 45 e8             	lea    0xffffffe8(%ebp),%eax
 8074708:	89 04 24             	mov    %eax,(%esp)
 807470b:	e8 46 17 00 00       	call   8075e56 <_ZNKSt15_Deque_iteratorIPN3zmq8socket_tERS2_PS2_EdeEv>
 8074710:	c9                   	leave  
 8074711:	c3                   	ret    

08074712 <_ZNSt5dequeIPN3zmq8socket_tESaIS2_EE9pop_frontEv>:
 8074712:	55                   	push   %ebp
 8074713:	89 e5                	mov    %esp,%ebp
 8074715:	83 ec 18             	sub    $0x18,%esp
 8074718:	8b 45 08             	mov    0x8(%ebp),%eax
 807471b:	8b 50 08             	mov    0x8(%eax),%edx
 807471e:	8b 45 08             	mov    0x8(%ebp),%eax
 8074721:	8b 40 10             	mov    0x10(%eax),%eax
 8074724:	83 e8 04             	sub    $0x4,%eax
 8074727:	39 c2                	cmp    %eax,%edx
 8074729:	74 26                	je     8074751 <_ZNSt5dequeIPN3zmq8socket_tESaIS2_EE9pop_frontEv+0x3f>
 807472b:	8b 45 08             	mov    0x8(%ebp),%eax
 807472e:	8b 50 08             	mov    0x8(%eax),%edx
 8074731:	8b 45 08             	mov    0x8(%ebp),%eax
 8074734:	89 54 24 04          	mov    %edx,0x4(%esp)
 8074738:	89 04 24             	mov    %eax,(%esp)
 807473b:	e8 20 17 00 00       	call   8075e60 <_ZN9__gnu_cxx13new_allocatorIPN3zmq8socket_tEE7destroyEPS3_>
 8074740:	8b 45 08             	mov    0x8(%ebp),%eax
 8074743:	8b 40 08             	mov    0x8(%eax),%eax
 8074746:	8d 50 04             	lea    0x4(%eax),%edx
 8074749:	8b 45 08             	mov    0x8(%ebp),%eax
 807474c:	89 50 08             	mov    %edx,0x8(%eax)
 807474f:	eb 0b                	jmp    807475c <_ZNSt5dequeIPN3zmq8socket_tESaIS2_EE9pop_frontEv+0x4a>
 8074751:	8b 45 08             	mov    0x8(%ebp),%eax
 8074754:	89 04 24             	mov    %eax,(%esp)
 8074757:	e8 0a 17 00 00       	call   8075e66 <_ZNSt5dequeIPN3zmq8socket_tESaIS2_EE16_M_pop_front_auxEv>
 807475c:	c9                   	leave  
 807475d:	c3                   	ret    

0807475e <_ZNKSt5dequeIP5ParseSaIS1_EE5emptyEv>:
 807475e:	55                   	push   %ebp
 807475f:	89 e5                	mov    %esp,%ebp
 8074761:	83 ec 18             	sub    $0x18,%esp
 8074764:	8b 45 08             	mov    0x8(%ebp),%eax
 8074767:	8d 50 08             	lea    0x8(%eax),%edx
 807476a:	8b 45 08             	mov    0x8(%ebp),%eax
 807476d:	83 c0 18             	add    $0x18,%eax
 8074770:	89 54 24 04          	mov    %edx,0x4(%esp)
 8074774:	89 04 24             	mov    %eax,(%esp)
 8074777:	e8 43 17 00 00       	call   8075ebf <_ZSteqIP5ParseRS1_PS1_EbRKSt15_Deque_iteratorIT_T0_T1_ESA_>
 807477c:	c9                   	leave  
 807477d:	c3                   	ret    

0807477e <_ZNSt5dequeIP5ParseSaIS1_EE5frontEv>:
 807477e:	55                   	push   %ebp
 807477f:	89 e5                	mov    %esp,%ebp
 8074781:	83 ec 28             	sub    $0x28,%esp
 8074784:	8d 45 e8             	lea    0xffffffe8(%ebp),%eax
 8074787:	8b 55 08             	mov    0x8(%ebp),%edx
 807478a:	89 54 24 04          	mov    %edx,0x4(%esp)
 807478e:	89 04 24             	mov    %eax,(%esp)
 8074791:	e8 ec 12 00 00       	call   8075a82 <_ZNSt5dequeIP5ParseSaIS1_EE5beginEv>
 8074796:	83 ec 04             	sub    $0x4,%esp
 8074799:	8d 45 e8             	lea    0xffffffe8(%ebp),%eax
 807479c:	89 04 24             	mov    %eax,(%esp)
 807479f:	e8 30 17 00 00       	call   8075ed4 <_ZNKSt15_Deque_iteratorIP5ParseRS1_PS1_EdeEv>
 80747a4:	c9                   	leave  
 80747a5:	c3                   	ret    

080747a6 <_ZNSt5dequeIP5ParseSaIS1_EE9pop_frontEv>:
 80747a6:	55                   	push   %ebp
 80747a7:	89 e5                	mov    %esp,%ebp
 80747a9:	83 ec 18             	sub    $0x18,%esp
 80747ac:	8b 45 08             	mov    0x8(%ebp),%eax
 80747af:	8b 50 08             	mov    0x8(%eax),%edx
 80747b2:	8b 45 08             	mov    0x8(%ebp),%eax
 80747b5:	8b 40 10             	mov    0x10(%eax),%eax
 80747b8:	83 e8 04             	sub    $0x4,%eax
 80747bb:	39 c2                	cmp    %eax,%edx
 80747bd:	74 26                	je     80747e5 <_ZNSt5dequeIP5ParseSaIS1_EE9pop_frontEv+0x3f>
 80747bf:	8b 45 08             	mov    0x8(%ebp),%eax
 80747c2:	8b 50 08             	mov    0x8(%eax),%edx
 80747c5:	8b 45 08             	mov    0x8(%ebp),%eax
 80747c8:	89 54 24 04          	mov    %edx,0x4(%esp)
 80747cc:	89 04 24             	mov    %eax,(%esp)
 80747cf:	e8 0a 17 00 00       	call   8075ede <_ZN9__gnu_cxx13new_allocatorIP5ParseE7destroyEPS2_>
 80747d4:	8b 45 08             	mov    0x8(%ebp),%eax
 80747d7:	8b 40 08             	mov    0x8(%eax),%eax
 80747da:	8d 50 04             	lea    0x4(%eax),%edx
 80747dd:	8b 45 08             	mov    0x8(%ebp),%eax
 80747e0:	89 50 08             	mov    %edx,0x8(%eax)
 80747e3:	eb 0b                	jmp    80747f0 <_ZNSt5dequeIP5ParseSaIS1_EE9pop_frontEv+0x4a>
 80747e5:	8b 45 08             	mov    0x8(%ebp),%eax
 80747e8:	89 04 24             	mov    %eax,(%esp)
 80747eb:	e8 f4 16 00 00       	call   8075ee4 <_ZNSt5dequeIP5ParseSaIS1_EE16_M_pop_front_auxEv>
 80747f0:	c9                   	leave  
 80747f1:	c3                   	ret    

080747f2 <_ZNKSt5dequeIP10LuaRoutineSaIS1_EE5emptyEv>:
 80747f2:	55                   	push   %ebp
 80747f3:	89 e5                	mov    %esp,%ebp
 80747f5:	83 ec 18             	sub    $0x18,%esp
 80747f8:	8b 45 08             	mov    0x8(%ebp),%eax
 80747fb:	8d 50 08             	lea    0x8(%eax),%edx
 80747fe:	8b 45 08             	mov    0x8(%ebp),%eax
 8074801:	83 c0 18             	add    $0x18,%eax
 8074804:	89 54 24 04          	mov    %edx,0x4(%esp)
 8074808:	89 04 24             	mov    %eax,(%esp)
 807480b:	e8 2d 17 00 00       	call   8075f3d <_ZSteqIP10LuaRoutineRS1_PS1_EbRKSt15_Deque_iteratorIT_T0_T1_ESA_>
 8074810:	c9                   	leave  
 8074811:	c3                   	ret    

08074812 <_ZNSt5dequeIP10LuaRoutineSaIS1_EE5frontEv>:
 8074812:	55                   	push   %ebp
 8074813:	89 e5                	mov    %esp,%ebp
 8074815:	83 ec 28             	sub    $0x28,%esp
 8074818:	8d 45 e8             	lea    0xffffffe8(%ebp),%eax
 807481b:	8b 55 08             	mov    0x8(%ebp),%edx
 807481e:	89 54 24 04          	mov    %edx,0x4(%esp)
 8074822:	89 04 24             	mov    %eax,(%esp)
 8074825:	e8 b2 13 00 00       	call   8075bdc <_ZNSt5dequeIP10LuaRoutineSaIS1_EE5beginEv>
 807482a:	83 ec 04             	sub    $0x4,%esp
 807482d:	8d 45 e8             	lea    0xffffffe8(%ebp),%eax
 8074830:	89 04 24             	mov    %eax,(%esp)
 8074833:	e8 1a 17 00 00       	call   8075f52 <_ZNKSt15_Deque_iteratorIP10LuaRoutineRS1_PS1_EdeEv>
 8074838:	c9                   	leave  
 8074839:	c3                   	ret    

0807483a <_ZNSt5dequeIP10LuaRoutineSaIS1_EE9pop_frontEv>:
 807483a:	55                   	push   %ebp
 807483b:	89 e5                	mov    %esp,%ebp
 807483d:	83 ec 18             	sub    $0x18,%esp
 8074840:	8b 45 08             	mov    0x8(%ebp),%eax
 8074843:	8b 50 08             	mov    0x8(%eax),%edx
 8074846:	8b 45 08             	mov    0x8(%ebp),%eax
 8074849:	8b 40 10             	mov    0x10(%eax),%eax
 807484c:	83 e8 04             	sub    $0x4,%eax
 807484f:	39 c2                	cmp    %eax,%edx
 8074851:	74 26                	je     8074879 <_ZNSt5dequeIP10LuaRoutineSaIS1_EE9pop_frontEv+0x3f>
 8074853:	8b 45 08             	mov    0x8(%ebp),%eax
 8074856:	8b 50 08             	mov    0x8(%eax),%edx
 8074859:	8b 45 08             	mov    0x8(%ebp),%eax
 807485c:	89 54 24 04          	mov    %edx,0x4(%esp)
 8074860:	89 04 24             	mov    %eax,(%esp)
 8074863:	e8 f4 16 00 00       	call   8075f5c <_ZN9__gnu_cxx13new_allocatorIP10LuaRoutineE7destroyEPS2_>
 8074868:	8b 45 08             	mov    0x8(%ebp),%eax
 807486b:	8b 40 08             	mov    0x8(%eax),%eax
 807486e:	8d 50 04             	lea    0x4(%eax),%edx
 8074871:	8b 45 08             	mov    0x8(%ebp),%eax
 8074874:	89 50 08             	mov    %edx,0x8(%eax)
 8074877:	eb 0b                	jmp    8074884 <_ZNSt5dequeIP10LuaRoutineSaIS1_EE9pop_frontEv+0x4a>
 8074879:	8b 45 08             	mov    0x8(%ebp),%eax
 807487c:	89 04 24             	mov    %eax,(%esp)
 807487f:	e8 de 16 00 00       	call   8075f62 <_ZNSt5dequeIP10LuaRoutineSaIS1_EE16_M_pop_front_auxEv>
 8074884:	c9                   	leave  
 8074885:	c3                   	ret    

08074886 <_ZNSt3mapISsPN3zmq8socket_tESt4lessISsESaISt4pairIKSsS2_EEE5clearEv>:
 8074886:	55                   	push   %ebp
 8074887:	89 e5                	mov    %esp,%ebp
 8074889:	83 ec 18             	sub    $0x18,%esp
 807488c:	8b 45 08             	mov    0x8(%ebp),%eax
 807488f:	89 04 24             	mov    %eax,(%esp)
 8074892:	e8 25 17 00 00       	call   8075fbc <_ZNSt8_Rb_treeISsSt4pairIKSsPN3zmq8socket_tEESt10_Select1stIS5_ESt4lessISsESaIS5_EE5clearEv>
 8074897:	c9                   	leave  
 8074898:	c3                   	ret    
 8074899:	90                   	nop    

0807489a <_ZNSt6vectorIiSaIiEEC1Ev>:
 807489a:	55                   	push   %ebp
 807489b:	89 e5                	mov    %esp,%ebp
 807489d:	83 ec 18             	sub    $0x18,%esp
 80748a0:	8b 45 08             	mov    0x8(%ebp),%eax
 80748a3:	89 04 24             	mov    %eax,(%esp)
 80748a6:	e8 87 17 00 00       	call   8076032 <_ZNSt12_Vector_baseIiSaIiEEC1Ev>
 80748ab:	c9                   	leave  
 80748ac:	c3                   	ret    
 80748ad:	90                   	nop    

080748ae <_ZNSt5dequeI17XML_ListeningItemSaIS0_EEC1Ev>:
 80748ae:	55                   	push   %ebp
 80748af:	89 e5                	mov    %esp,%ebp
 80748b1:	83 ec 18             	sub    $0x18,%esp
 80748b4:	8b 45 08             	mov    0x8(%ebp),%eax
 80748b7:	89 04 24             	mov    %eax,(%esp)
 80748ba:	e8 9b 17 00 00       	call   807605a <_ZNSt11_Deque_baseI17XML_ListeningItemSaIS0_EEC1Ev>
 80748bf:	c9                   	leave  
 80748c0:	c3                   	ret    
 80748c1:	90                   	nop    

080748c2 <_ZNSt5dequeI17XML_ListeningItemSaIS0_EED1Ev>:
 80748c2:	55                   	push   %ebp
 80748c3:	89 e5                	mov    %esp,%ebp
 80748c5:	53                   	push   %ebx
 80748c6:	83 ec 34             	sub    $0x34,%esp
 80748c9:	8b 45 08             	mov    0x8(%ebp),%eax
 80748cc:	89 04 24             	mov    %eax,(%esp)
 80748cf:	e8 44 18 00 00       	call   8076118 <_ZNSt11_Deque_baseI17XML_ListeningItemSaIS0_EE19_M_get_Tp_allocatorEv>
 80748d4:	89 c3                	mov    %eax,%ebx
 80748d6:	8d 45 d8             	lea    0xffffffd8(%ebp),%eax
 80748d9:	8b 55 08             	mov    0x8(%ebp),%edx
 80748dc:	89 54 24 04          	mov    %edx,0x4(%esp)
 80748e0:	89 04 24             	mov    %eax,(%esp)
 80748e3:	e8 82 01 00 00       	call   8074a6a <_ZNSt5dequeI17XML_ListeningItemSaIS0_EE3endEv>
 80748e8:	83 ec 04             	sub    $0x4,%esp
 80748eb:	8d 45 e8             	lea    0xffffffe8(%ebp),%eax
 80748ee:	8b 55 08             	mov    0x8(%ebp),%edx
 80748f1:	89 54 24 04          	mov    %edx,0x4(%esp)
 80748f5:	89 04 24             	mov    %eax,(%esp)
 80748f8:	e8 17 01 00 00       	call   8074a14 <_ZNSt5dequeI17XML_ListeningItemSaIS0_EE5beginEv>
 80748fd:	83 ec 04             	sub    $0x4,%esp
 8074900:	89 5c 24 0c          	mov    %ebx,0xc(%esp)
 8074904:	8d 45 d8             	lea    0xffffffd8(%ebp),%eax
 8074907:	89 44 24 08          	mov    %eax,0x8(%esp)
 807490b:	8d 45 e8             	lea    0xffffffe8(%ebp),%eax
 807490e:	89 44 24 04          	mov    %eax,0x4(%esp)
 8074912:	8b 45 08             	mov    0x8(%ebp),%eax
 8074915:	89 04 24             	mov    %eax,(%esp)
 8074918:	e8 03 18 00 00       	call   8076120 <_ZNSt5dequeI17XML_ListeningItemSaIS0_EE15_M_destroy_dataESt15_Deque_iteratorIS0_RS0_PS0_ES6_RKS1_>
 807491d:	8b 45 08             	mov    0x8(%ebp),%eax
 8074920:	89 04 24             	mov    %eax,(%esp)
 8074923:	e8 76 17 00 00       	call   807609e <_ZNSt11_Deque_baseI17XML_ListeningItemSaIS0_EED1Ev>
 8074928:	eb 19                	jmp    8074943 <_ZNSt5dequeI17XML_ListeningItemSaIS0_EED1Ev+0x81>
 807492a:	eb 00                	jmp    807492c <_ZNSt5dequeI17XML_ListeningItemSaIS0_EED1Ev+0x6a>
 807492c:	89 c3                	mov    %eax,%ebx
 807492e:	8b 45 08             	mov    0x8(%ebp),%eax
 8074931:	89 04 24             	mov    %eax,(%esp)
 8074934:	e8 65 17 00 00       	call   807609e <_ZNSt11_Deque_baseI17XML_ListeningItemSaIS0_EED1Ev>
 8074939:	89 d8                	mov    %ebx,%eax
 807493b:	89 04 24             	mov    %eax,(%esp)
 807493e:	e8 0d d2 ff ff       	call   8071b50 <_Unwind_Resume@plt>
 8074943:	8b 5d fc             	mov    0xfffffffc(%ebp),%ebx
 8074946:	c9                   	leave  
 8074947:	c3                   	ret    

08074948 <_ZNSt5dequeI7XML_ZMQSaIS0_EE5beginEv>:
 8074948:	55                   	push   %ebp
 8074949:	89 e5                	mov    %esp,%ebp
 807494b:	83 ec 18             	sub    $0x18,%esp
 807494e:	8b 45 0c             	mov    0xc(%ebp),%eax
 8074951:	83 c0 08             	add    $0x8,%eax
 8074954:	89 44 24 04          	mov    %eax,0x4(%esp)
 8074958:	8b 45 08             	mov    0x8(%ebp),%eax
 807495b:	89 04 24             	mov    %eax,(%esp)
 807495e:	e8 07 00 00 00       	call   807496a <_ZNSt15_Deque_iteratorI7XML_ZMQRS0_PS0_EC1ERKS3_>
 8074963:	8b 45 08             	mov    0x8(%ebp),%eax
 8074966:	c9                   	leave  
 8074967:	c2 04 00             	ret    $0x4

0807496a <_ZNSt15_Deque_iteratorI7XML_ZMQRS0_PS0_EC1ERKS3_>:
 807496a:	55                   	push   %ebp
 807496b:	89 e5                	mov    %esp,%ebp
 807496d:	8b 45 0c             	mov    0xc(%ebp),%eax
 8074970:	8b 10                	mov    (%eax),%edx
 8074972:	8b 45 08             	mov    0x8(%ebp),%eax
 8074975:	89 10                	mov    %edx,(%eax)
 8074977:	8b 45 0c             	mov    0xc(%ebp),%eax
 807497a:	8b 50 04             	mov    0x4(%eax),%edx
 807497d:	8b 45 08             	mov    0x8(%ebp),%eax
 8074980:	89 50 04             	mov    %edx,0x4(%eax)
 8074983:	8b 45 0c             	mov    0xc(%ebp),%eax
 8074986:	8b 50 08             	mov    0x8(%eax),%edx
 8074989:	8b 45 08             	mov    0x8(%ebp),%eax
 807498c:	89 50 08             	mov    %edx,0x8(%eax)
 807498f:	8b 45 0c             	mov    0xc(%ebp),%eax
 8074992:	8b 50 0c             	mov    0xc(%eax),%edx
 8074995:	8b 45 08             	mov    0x8(%ebp),%eax
 8074998:	89 50 0c             	mov    %edx,0xc(%eax)
 807499b:	5d                   	pop    %ebp
 807499c:	c3                   	ret    
 807499d:	90                   	nop    

0807499e <_ZNSt5dequeI7XML_ZMQSaIS0_EE3endEv>:
 807499e:	55                   	push   %ebp
 807499f:	89 e5                	mov    %esp,%ebp
 80749a1:	83 ec 18             	sub    $0x18,%esp
 80749a4:	8b 45 0c             	mov    0xc(%ebp),%eax
 80749a7:	83 c0 18             	add    $0x18,%eax
 80749aa:	89 44 24 04          	mov    %eax,0x4(%esp)
 80749ae:	8b 45 08             	mov    0x8(%ebp),%eax
 80749b1:	89 04 24             	mov    %eax,(%esp)
 80749b4:	e8 b1 ff ff ff       	call   807496a <_ZNSt15_Deque_iteratorI7XML_ZMQRS0_PS0_EC1ERKS3_>
 80749b9:	8b 45 08             	mov    0x8(%ebp),%eax
 80749bc:	c9                   	leave  
 80749bd:	c2 04 00             	ret    $0x4

080749c0 <_ZStneI7XML_ZMQRS0_PS0_EbRKSt15_Deque_iteratorIT_T0_T1_ES9_>:
 80749c0:	55                   	push   %ebp
 80749c1:	89 e5                	mov    %esp,%ebp
 80749c3:	83 ec 18             	sub    $0x18,%esp
 80749c6:	8b 45 0c             	mov    0xc(%ebp),%eax
 80749c9:	89 44 24 04          	mov    %eax,0x4(%esp)
 80749cd:	8b 45 08             	mov    0x8(%ebp),%eax
 80749d0:	89 04 24             	mov    %eax,(%esp)
 80749d3:	e8 97 17 00 00       	call   807616f <_ZSteqI7XML_ZMQRS0_PS0_EbRKSt15_Deque_iteratorIT_T0_T1_ES9_>
 80749d8:	83 f0 01             	xor    $0x1,%eax
 80749db:	c9                   	leave  
 80749dc:	c3                   	ret    
 80749dd:	90                   	nop    

080749de <_ZNSt15_Deque_iteratorI7XML_ZMQRS0_PS0_EppEi>:
 80749de:	55                   	push   %ebp
 80749df:	89 e5                	mov    %esp,%ebp
 80749e1:	83 ec 18             	sub    $0x18,%esp
 80749e4:	8b 45 0c             	mov    0xc(%ebp),%eax
 80749e7:	89 44 24 04          	mov    %eax,0x4(%esp)
 80749eb:	8b 45 08             	mov    0x8(%ebp),%eax
 80749ee:	89 04 24             	mov    %eax,(%esp)
 80749f1:	e8 74 ff ff ff       	call   807496a <_ZNSt15_Deque_iteratorI7XML_ZMQRS0_PS0_EC1ERKS3_>
 80749f6:	8b 45 0c             	mov    0xc(%ebp),%eax
 80749f9:	89 04 24             	mov    %eax,(%esp)
 80749fc:	e8 83 17 00 00       	call   8076184 <_ZNSt15_Deque_iteratorI7XML_ZMQRS0_PS0_EppEv>
 8074a01:	90                   	nop    
 8074a02:	8b 45 08             	mov    0x8(%ebp),%eax
 8074a05:	c9                   	leave  
 8074a06:	c2 04 00             	ret    $0x4
 8074a09:	90                   	nop    

08074a0a <_ZNKSt15_Deque_iteratorI7XML_ZMQRS0_PS0_EdeEv>:
 8074a0a:	55                   	push   %ebp
 8074a0b:	89 e5                	mov    %esp,%ebp
 8074a0d:	8b 45 08             	mov    0x8(%ebp),%eax
 8074a10:	8b 00                	mov    (%eax),%eax
 8074a12:	5d                   	pop    %ebp
 8074a13:	c3                   	ret    

08074a14 <_ZNSt5dequeI17XML_ListeningItemSaIS0_EE5beginEv>:
 8074a14:	55                   	push   %ebp
 8074a15:	89 e5                	mov    %esp,%ebp
 8074a17:	83 ec 18             	sub    $0x18,%esp
 8074a1a:	8b 45 0c             	mov    0xc(%ebp),%eax
 8074a1d:	83 c0 08             	add    $0x8,%eax
 8074a20:	89 44 24 04          	mov    %eax,0x4(%esp)
 8074a24:	8b 45 08             	mov    0x8(%ebp),%eax
 8074a27:	89 04 24             	mov    %eax,(%esp)
 8074a2a:	e8 07 00 00 00       	call   8074a36 <_ZNSt15_Deque_iteratorI17XML_ListeningItemRS0_PS0_EC1ERKS3_>
 8074a2f:	8b 45 08             	mov    0x8(%ebp),%eax
 8074a32:	c9                   	leave  
 8074a33:	c2 04 00             	ret    $0x4

08074a36 <_ZNSt15_Deque_iteratorI17XML_ListeningItemRS0_PS0_EC1ERKS3_>:
 8074a36:	55                   	push   %ebp
 8074a37:	89 e5                	mov    %esp,%ebp
 8074a39:	8b 45 0c             	mov    0xc(%ebp),%eax
 8074a3c:	8b 10                	mov    (%eax),%edx
 8074a3e:	8b 45 08             	mov    0x8(%ebp),%eax
 8074a41:	89 10                	mov    %edx,(%eax)
 8074a43:	8b 45 0c             	mov    0xc(%ebp),%eax
 8074a46:	8b 50 04             	mov    0x4(%eax),%edx
 8074a49:	8b 45 08             	mov    0x8(%ebp),%eax
 8074a4c:	89 50 04             	mov    %edx,0x4(%eax)
 8074a4f:	8b 45 0c             	mov    0xc(%ebp),%eax
 8074a52:	8b 50 08             	mov    0x8(%eax),%edx
 8074a55:	8b 45 08             	mov    0x8(%ebp),%eax
 8074a58:	89 50 08             	mov    %edx,0x8(%eax)
 8074a5b:	8b 45 0c             	mov    0xc(%ebp),%eax
 8074a5e:	8b 50 0c             	mov    0xc(%eax),%edx
 8074a61:	8b 45 08             	mov    0x8(%ebp),%eax
 8074a64:	89 50 0c             	mov    %edx,0xc(%eax)
 8074a67:	5d                   	pop    %ebp
 8074a68:	c3                   	ret    
 8074a69:	90                   	nop    

08074a6a <_ZNSt5dequeI17XML_ListeningItemSaIS0_EE3endEv>:
 8074a6a:	55                   	push   %ebp
 8074a6b:	89 e5                	mov    %esp,%ebp
 8074a6d:	83 ec 18             	sub    $0x18,%esp
 8074a70:	8b 45 0c             	mov    0xc(%ebp),%eax
 8074a73:	83 c0 18             	add    $0x18,%eax
 8074a76:	89 44 24 04          	mov    %eax,0x4(%esp)
 8074a7a:	8b 45 08             	mov    0x8(%ebp),%eax
 8074a7d:	89 04 24             	mov    %eax,(%esp)
 8074a80:	e8 b1 ff ff ff       	call   8074a36 <_ZNSt15_Deque_iteratorI17XML_ListeningItemRS0_PS0_EC1ERKS3_>
